(lp0
ccopy_reg
_reconstructor
p1
(ctask_sim.msg._Action
Action
p2
c__builtin__
object
p3
Ntp4
Rp5
(lp6
I0
aS'drawer'
p7
ag1
(cgeometry_msgs.msg._Point
Point
p8
g3
Ntp9
Rp10
(lp11
F0.0
aF0.0
aF0.0
ababag1
(g2
g3
Ntp12
Rp13
(lp14
I0
aS'apple'
p15
ag1
(g8
g3
Ntp16
Rp17
(lp18
F0.0
aF0.0
aF0.0
ababag1
(g2
g3
Ntp19
Rp20
(lp21
I1
aS'stack'
p22
ag1
(g8
g3
Ntp23
Rp24
(lp25
F0.0
aF0.0
aF0.0
ababag1
(g2
g3
Ntp26
Rp27
(lp28
I1
ag7
ag1
(g8
g3
Ntp29
Rp30
(lp31
F0.0
aF0.0
aF0.0
ababag1
(g2
g3
Ntp32
Rp33
(lp34
I1
aS''
p35
ag1
(g8
g3
Ntp36
Rp37
(lp38
F0.0
aF0.0
aF0.0
ababag1
(g2
g3
Ntp39
Rp40
(lp41
I4
ag7
ag1
(g8
g3
Ntp42
Rp43
(lp44
F0.0
aF0.0
aF0.0
ababag1
(g2
g3
Ntp45
Rp46
(lp47
I4
ag22
ag1
(g8
g3
Ntp48
Rp49
(lp50
F0.0
aF0.0
aF0.0
ababag1
(g2
g3
Ntp51
Rp52
(lp53
I4
ag15
ag1
(g8
g3
Ntp54
Rp55
(lp56
F0.0
aF0.0
aF0.0
ababag1
(g2
g3
Ntp57
Rp58
(lp59
I4
aS'l'
p60
ag1
(g8
g3
Ntp61
Rp62
(lp63
F0.0
aF0.0
aF0.0
ababag1
(g2
g3
Ntp64
Rp65
(lp66
I4
aS'f'
p67
ag1
(g8
g3
Ntp68
Rp69
(lp70
F0.0
aF0.0
aF0.0
ababag1
(g2
g3
Ntp71
Rp72
(lp73
I4
aS'r'
p74
ag1
(g8
g3
Ntp75
Rp76
(lp77
F0.0
aF0.0
aF0.0
ababag1
(g2
g3
Ntp78
Rp79
(lp80
I4
aS'b'
p81
ag1
(g8
g3
Ntp82
Rp83
(lp84
F0.0
aF0.0
aF0.0
ababag1
(g2
g3
Ntp85
Rp86
(lp87
I4
aS'fl'
p88
ag1
(g8
g3
Ntp89
Rp90
(lp91
F0.0
aF0.0
aF0.0
ababag1
(g2
g3
Ntp92
Rp93
(lp94
I4
aS'fr'
p95
ag1
(g8
g3
Ntp96
Rp97
(lp98
F0.0
aF0.0
aF0.0
ababag1
(g2
g3
Ntp99
Rp100
(lp101
I4
aS'br'
p102
ag1
(g8
g3
Ntp103
Rp104
(lp105
F0.0
aF0.0
aF0.0
ababag1
(g2
g3
Ntp106
Rp107
(lp108
I4
aS'bl'
p109
ag1
(g8
g3
Ntp110
Rp111
(lp112
F0.0
aF0.0
aF0.0
ababag1
(g2
g3
Ntp113
Rp114
(lp115
I2
ag35
ag1
(g8
g3
Ntp116
Rp117
(lp118
F0.0
aF0.0
aF0.0
ababag1
(g2
g3
Ntp119
Rp120
(lp121
I3
ag35
ag1
(g8
g3
Ntp122
Rp123
(lp124
F0.0
aF0.0
aF0.0
ababag1
(g2
g3
Ntp125
Rp126
(lp127
I5
ag35
ag1
(g8
g3
Ntp128
Rp129
(lp130
F0.0
aF0.0
aF0.0
ababag1
(g2
g3
Ntp131
Rp132
(lp133
I6
ag35
ag1
(g8
g3
Ntp134
Rp135
(lp136
F0.0
aF0.0
aF0.0
ababag1
(g2
g3
Ntp137
Rp138
(lp139
I7
ag35
ag1
(g8
g3
Ntp140
Rp141
(lp142
F0.0
aF0.0
aF0.0
ababa.