(dp0
(itask_sim.str.amdp_state
AMDPState
p1
(dp2
S'ground_items'
p3
NsS'amdp_id'
p4
I12
sS'relations'
p5
(dp6
S'apple_inside_drawer'
p7
I01
sS'daikon_inside_box'
p8
I00
sS'carrot_inside_box'
p9
I00
sS'drawer_closing_stack'
p10
I01
sS'banana_inside_drawer'
p11
I01
sS'lid_closing_box'
p12
I01
ssS'relation_names'
p13
(lp14
g7
ag11
ag9
ag8
ag10
ag12
asbF79.0
s(itask_sim.str.amdp_state
AMDPState
p15
(dp16
g3
Nsg4
I12
sg5
(dp17
g7
I00
sg8
I01
sg9
I01
sg10
I01
sg11
I00
sg12
I01
ssg13
(lp18
g7
ag11
ag9
ag8
ag10
ag12
asbF79.0
s(itask_sim.str.amdp_state
AMDPState
p19
(dp20
g3
Nsg4
I12
sg5
(dp21
g7
I01
sg8
I01
sg9
I01
sg10
I01
sg11
I01
sg12
I01
ssg13
(lp22
g7
ag11
ag9
ag8
ag10
ag12
asbI100
s(itask_sim.str.amdp_state
AMDPState
p23
(dp24
g3
Nsg4
I12
sg5
(dp25
g7
I00
sg8
I00
sg9
I00
sg10
I01
sg11
I00
sg12
I01
ssg13
(lp26
g7
ag11
ag9
ag8
ag10
ag12
asbF62.2
s.