(dp0
(itask_sim.str.amdp_state
AMDPState
p1
(dp2
S'ground_item'
p3
NsS'amdp_id'
p4
I4
sS'relations'
p5
(dp6
S'banana_inside_drawer'
p7
I00
sS'apple_inside_drawer'
p8
I00
sS'drawer_closing_stack'
p9
I01
ssS'relation_names'
p10
(lp11
g8
ag7
ag9
asbF38.00800000000001
s(itask_sim.str.amdp_state
AMDPState
p12
(dp13
g3
Nsg4
I4
sg5
(dp14
g7
I00
sg8
I01
sg9
I00
ssg10
(lp15
g8
ag7
ag9
asbF62.2
s(itask_sim.str.amdp_state
AMDPState
p16
(dp17
g3
Nsg4
I4
sg5
(dp18
g7
I01
sg8
I00
sg9
I00
ssg10
(lp19
g8
ag7
ag9
asbF62.2
s(itask_sim.str.amdp_state
AMDPState
p20
(dp21
g3
Nsg4
I4
sg5
(dp22
g7
I00
sg9
I00
sg8
I00
ssg10
(lp23
g8
ag7
ag9
asbF48.760000000000005
s(itask_sim.str.amdp_state
AMDPState
p24
(dp25
g3
Nsg4
I4
sg5
(dp26
g7
I01
sg9
I01
sg8
I00
ssg10
(lp27
g8
ag7
ag9
asbF48.760000000000005
s(itask_sim.str.amdp_state
AMDPState
p28
(dp29
g3
Nsg4
I4
sg5
(dp30
g7
I01
sg8
I01
sg9
I01
ssg10
(lp31
g8
ag7
ag9
asbI100
s(itask_sim.str.amdp_state
AMDPState
p32
(dp33
g3
Nsg4
I4
sg5
(dp34
g7
I00
sg9
I01
sg8
I01
ssg10
(lp35
g8
ag7
ag9
asbF48.760000000000005
s(itask_sim.str.amdp_state
AMDPState
p36
(dp37
g3
Nsg4
I4
sg5
(dp38
g7
I01
sg9
I00
sg8
I01
ssg10
(lp39
g8
ag7
ag9
asbF79.0
s.