(lp0
(itask_sim.amdp_plan_action
AMDPPlanAction
p1
(dp2
S'action_object'
p3
S'lid'
p4
sS'preconditions'
p5
(dp6
S'apple_in_box'
p7
I00
sS'gripper_holding_lid'
p8
I00
sS'lid_closing_box'
p9
I01
sS'gripper_holding_apple'
p10
I00
ssS'amdp_id'
p11
I8
sS'action_type'
p12
I0
sS'effects'
p13
(dp14
g8
I01
ssba(itask_sim.amdp_plan_action
AMDPPlanAction
p15
(dp16
g3
S'l'
p17
sg5
(dp18
g7
I00
sg8
I01
sg9
I01
sg10
I00
ssg11
I8
sg12
I4
sg13
(dp19
g9
I00
ssba(itask_sim.amdp_plan_action
AMDPPlanAction
p20
(dp21
g3
S'apple'
p22
sg5
(dp23
g7
I00
sg8
I01
sg9
I00
sg10
I00
ssg11
I8
sg12
I0
sg13
(dp24
g8
I00
sg10
I01
ssba(itask_sim.amdp_plan_action
AMDPPlanAction
p25
(dp26
g3
S''
p27
sg5
(dp28
g7
I00
sg8
I00
sg9
I00
sg10
I01
ssg11
I8
sg12
I5
sg13
(dp29
sba(itask_sim.amdp_plan_action
AMDPPlanAction
p30
(dp31
g3
S'box'
p32
sg5
(dp33
g7
I00
sg8
I00
sg9
I00
sg10
I01
ssg11
I8
sg12
I4
sg13
(dp34
sba(itask_sim.amdp_plan_action
AMDPPlanAction
p35
(dp36
g3
g27
sg5
(dp37
g7
I00
sg8
I00
sg9
I00
sg10
I01
ssg11
I8
sg12
I2
sg13
(dp38
g7
I01
sg10
I00
ssba(itask_sim.amdp_plan_action
AMDPPlanAction
p39
(dp40
g3
S'lid'
p41
sg5
(dp42
g7
I01
sg8
I00
sg9
I00
sg10
I00
ssg11
I8
sg12
I0
sg13
(dp43
g8
I01
ssba(itask_sim.amdp_plan_action
AMDPPlanAction
p44
(dp45
g3
g27
sg5
(dp46
g7
I01
sg8
I01
sg9
I00
sg10
I00
ssg11
I8
sg12
I5
sg13
(dp47
sba(itask_sim.amdp_plan_action
AMDPPlanAction
p48
(dp49
g3
g32
sg5
(dp50
g7
I01
sg8
I01
sg9
I00
sg10
I00
ssg11
I8
sg12
I4
sg13
(dp51
sba(itask_sim.amdp_plan_action
AMDPPlanAction
p52
(dp53
g3
g27
sg5
(dp54
g7
I01
sg8
I01
sg9
I00
sg10
I00
ssg11
I8
sg12
I2
sg13
(dp55
g8
I00
sg9
I01
ssba(itask_sim.amdp_plan_action
AMDPPlanAction
p56
(dp57
g3
S'br'
p58
sg5
(dp59
g7
I00
sg8
I01
sg9
I01
sg10
I00
ssg11
I8
sg12
I4
sg13
(dp60
g9
I00
ssba(itask_sim.amdp_plan_action
AMDPPlanAction
p61
(dp62
g3
g32
sg5
(dp63
g7
I00
sg8
I00
sg9
I00
sg10
I01
ssg11
I8
sg12
I1
sg13
(dp64
g7
I01
sg10
I00
ssba(itask_sim.amdp_plan_action
AMDPPlanAction
p65
(dp66
g3
g32
sg5
(dp67
g7
I01
sg8
I01
sg9
I00
sg10
I00
ssg11
I8
sg12
I1
sg13
(dp68
g8
I00
sg9
I01
ssba(itask_sim.amdp_plan_action
AMDPPlanAction
p69
(dp70
g3
S'bl'
p71
sg5
(dp72
g7
I00
sg8
I01
sg9
I01
sg10
I00
ssg11
I8
sg12
I4
sg13
(dp73
g9
I00
ssba(itask_sim.amdp_plan_action
AMDPPlanAction
p74
(dp75
g3
g27
sg5
(dp76
g7
I00
sg8
I01
sg9
I00
sg10
I00
ssg11
I8
sg12
I2
sg13
(dp77
g8
I00
ssba(itask_sim.amdp_plan_action
AMDPPlanAction
p78
(dp79
g3
S'apple'
p80
sg5
(dp81
g7
I00
sg8
I00
sg9
I00
sg10
I00
ssg11
I8
sg12
I0
sg13
(dp82
g10
I01
ssba(itask_sim.amdp_plan_action
AMDPPlanAction
p83
(dp84
g3
g32
sg5
(dp85
g7
I01
sg8
I01
sg9
I00
sg10
I00
ssg11
I8
sg12
I4
sg13
(dp86
g9
I01
ssba(itask_sim.amdp_plan_action
AMDPPlanAction
p87
(dp88
g3
g27
sg5
(dp89
g7
I01
sg8
I01
sg9
I01
sg10
I00
ssg11
I8
sg12
I2
sg13
(dp90
g8
I00
ssba(itask_sim.amdp_plan_action
AMDPPlanAction
p91
(dp92
g3
S'r'
p93
sg5
(dp94
g7
I00
sg8
I01
sg9
I01
sg10
I00
ssg11
I8
sg12
I4
sg13
(dp95
g9
I00
ssba(itask_sim.amdp_plan_action
AMDPPlanAction
p96
(dp97
g3
S'apple'
p98
sg5
(dp99
g7
I00
sg8
I01
sg9
I00
sg10
I00
ssg11
I8
sg12
I0
sg13
(dp100
g8
I00
ssba(itask_sim.amdp_plan_action
AMDPPlanAction
p101
(dp102
g3
S'lid'
p103
sg5
(dp104
g7
I00
sg8
I01
sg9
I01
sg10
I00
ssg11
I8
sg12
I4
sg13
(dp105
g9
I00
ssba(itask_sim.amdp_plan_action
AMDPPlanAction
p106
(dp107
g3
g27
sg5
(dp108
g7
I00
sg8
I00
sg9
I00
sg10
I00
ssg11
I8
sg12
I5
sg13
(dp109
sba(itask_sim.amdp_plan_action
AMDPPlanAction
p110
(dp111
g3
g103
sg5
(dp112
g7
I01
sg8
I01
sg9
I00
sg10
I00
ssg11
I8
sg12
I4
sg13
(dp113
g9
I01
ssba(itask_sim.amdp_plan_action
AMDPPlanAction
p114
(dp115
g3
g27
sg5
(dp116
g7
I00
sg8
I00
sg9
I00
sg10
I01
ssg11
I8
sg12
I7
sg13
(dp117
sba(itask_sim.amdp_plan_action
AMDPPlanAction
p118
(dp119
g3
S'f'
p120
sg5
(dp121
g7
I00
sg8
I01
sg9
I01
sg10
I00
ssg11
I8
sg12
I4
sg13
(dp122
g9
I00
ssba(itask_sim.amdp_plan_action
AMDPPlanAction
p123
(dp124
g3
S'fr'
p125
sg5
(dp126
g7
I00
sg8
I00
sg9
I00
sg10
I00
ssg11
I8
sg12
I4
sg13
(dp127
sba(itask_sim.amdp_plan_action
AMDPPlanAction
p128
(dp129
g3
g27
sg5
(dp130
g7
I00
sg8
I00
sg9
I00
sg10
I00
ssg11
I8
sg12
I6
sg13
(dp131
sba(itask_sim.amdp_plan_action
AMDPPlanAction
p132
(dp133
g3
g27
sg5
(dp134
g7
I00
sg8
I00
sg9
I00
sg10
I00
ssg11
I8
sg12
I3
sg13
(dp135
g10
I01
ssba(itask_sim.amdp_plan_action
AMDPPlanAction
p136
(dp137
g3
g32
sg5
(dp138
g7
I01
sg8
I01
sg9
I00
sg10
I00
ssg11
I8
sg12
I1
sg13
(dp139
sba(itask_sim.amdp_plan_action
AMDPPlanAction
p140
(dp141
g3
S'b'
p142
sg5
(dp143
g7
I00
sg8
I01
sg9
I01
sg10
I00
ssg11
I8
sg12
I4
sg13
(dp144
g9
I00
ssba(itask_sim.amdp_plan_action
AMDPPlanAction
p145
(dp146
g3
S'table'
p147
sg5
(dp148
g7
I00
sg8
I01
sg9
I01
sg10
I00
ssg11
I8
sg12
I1
sg13
(dp149
g8
I00
sg9
I00
ssba(itask_sim.amdp_plan_action
AMDPPlanAction
p150
(dp151
g3
S'apple'
p152
sg5
(dp153
g7
I00
sg8
I00
sg9
I00
sg10
I00
ssg11
I8
sg12
I0
sg13
(dp154
sba(itask_sim.amdp_plan_action
AMDPPlanAction
p155
(dp156
g3
S'fl'
p157
sg5
(dp158
g7
I00
sg8
I01
sg9
I01
sg10
I00
ssg11
I8
sg12
I4
sg13
(dp159
g9
I00
ssba(itask_sim.amdp_plan_action
AMDPPlanAction
p160
(dp161
g3
S'lid'
p162
sg5
(dp163
g7
I01
sg8
I00
sg9
I00
sg10
I00
ssg11
I8
sg12
I0
sg13
(dp164
sba(itask_sim.amdp_plan_action
AMDPPlanAction
p165
(dp166
g3
g27
sg5
(dp167
g7
I01
sg8
I00
sg9
I00
sg10
I00
ssg11
I8
sg12
I5
sg13
(dp168
sba(itask_sim.amdp_plan_action
AMDPPlanAction
p169
(dp170
g3
g27
sg5
(dp171
g7
I01
sg8
I00
sg9
I01
sg10
I00
ssg11
I8
sg12
I2
sg13
(dp172
sba.