(lp0
(itask_sim.amdp_plan_action
AMDPPlanAction
p1
(dp2
S'action'
p3
ccopy_reg
_reconstructor
p4
(ctmpIWgWS4
_task_sim__Action
p5
c__builtin__
object
p6
Ntp7
Rp8
(lp9
I0
aS'lid'
p10
ag4
(cgeometry_msgs.msg._Point
Point
p11
g6
Ntp12
Rp13
(lp14
F0.0
aF0.0
aF0.0
ababsS'preconditions'
p15
(dp16
S'gripper_holding_lid'
p17
I00
sS'lid_closing_box'
p18
I01
ssS'amdp_id'
p19
I6
sS'effects'
p20
(dp21
g17
I01
ssba(itask_sim.amdp_plan_action
AMDPPlanAction
p22
(dp23
g3
g4
(g5
g6
Ntp24
Rp25
(lp26
I4
aS'l'
p27
ag4
(g11
g6
Ntp28
Rp29
(lp30
F0.0
aF0.0
aF0.0
ababsg15
(dp31
g17
I01
sg18
I01
ssg19
I6
sg20
(dp32
g18
I00
ssba(itask_sim.amdp_plan_action
AMDPPlanAction
p33
(dp34
g3
g4
(g5
g6
Ntp35
Rp36
(lp37
I0
aS'apple'
p38
ag4
(g11
g6
Ntp39
Rp40
(lp41
F0.0
aF0.0
aF0.0
ababsg15
(dp42
g17
I01
sg18
I00
ssg19
I6
sg20
(dp43
g17
I00
ssba(itask_sim.amdp_plan_action
AMDPPlanAction
p44
(dp45
g3
g4
(g5
g6
Ntp46
Rp47
(lp48
I5
aS''
p49
ag4
(g11
g6
Ntp50
Rp51
(lp52
F0.0
aF0.0
aF0.0
ababsg15
(dp53
g17
I00
sg18
I00
ssg19
I6
sg20
(dp54
sba(itask_sim.amdp_plan_action
AMDPPlanAction
p55
(dp56
g3
g4
(g5
g6
Ntp57
Rp58
(lp59
I4
aS'box'
p60
ag4
(g11
g6
Ntp61
Rp62
(lp63
F0.0
aF0.0
aF0.0
ababsg15
(dp64
g17
I00
sg18
I00
ssg19
I6
sg20
(dp65
sba(itask_sim.amdp_plan_action
AMDPPlanAction
p66
(dp67
g3
g4
(g5
g6
Ntp68
Rp69
(lp70
I2
ag49
ag4
(g11
g6
Ntp71
Rp72
(lp73
F0.0
aF0.0
aF0.0
ababsg15
(dp74
g17
I00
sg18
I00
ssg19
I6
sg20
(dp75
sba(itask_sim.amdp_plan_action
AMDPPlanAction
p76
(dp77
g3
g4
(g5
g6
Ntp78
Rp79
(lp80
I0
aS'lid'
p81
ag4
(g11
g6
Ntp82
Rp83
(lp84
F0.0
aF0.0
aF0.0
ababsg15
(dp85
g17
I00
sg18
I00
ssg19
I6
sg20
(dp86
g17
I01
ssba(itask_sim.amdp_plan_action
AMDPPlanAction
p87
(dp88
g3
g4
(g5
g6
Ntp89
Rp90
(lp91
I5
ag49
ag4
(g11
g6
Ntp92
Rp93
(lp94
F0.0
aF0.0
aF0.0
ababsg15
(dp95
g17
I01
sg18
I00
ssg19
I6
sg20
(dp96
sba(itask_sim.amdp_plan_action
AMDPPlanAction
p97
(dp98
g3
g4
(g5
g6
Ntp99
Rp100
(lp101
I4
ag60
ag4
(g11
g6
Ntp102
Rp103
(lp104
F0.0
aF0.0
aF0.0
ababsg15
(dp105
g17
I01
sg18
I00
ssg19
I6
sg20
(dp106
sba(itask_sim.amdp_plan_action
AMDPPlanAction
p107
(dp108
g3
g4
(g5
g6
Ntp109
Rp110
(lp111
I2
ag49
ag4
(g11
g6
Ntp112
Rp113
(lp114
F0.0
aF0.0
aF0.0
ababsg15
(dp115
g17
I01
sg18
I00
ssg19
I6
sg20
(dp116
g17
I00
sg18
I01
ssba(itask_sim.amdp_plan_action
AMDPPlanAction
p117
(dp118
g3
g4
(g5
g6
Ntp119
Rp120
(lp121
I4
aS'br'
p122
ag4
(g11
g6
Ntp123
Rp124
(lp125
F0.0
aF0.0
aF0.0
ababsg15
(dp126
g17
I01
sg18
I01
ssg19
I6
sg20
(dp127
g18
I00
ssba(itask_sim.amdp_plan_action
AMDPPlanAction
p128
(dp129
g3
g4
(g5
g6
Ntp130
Rp131
(lp132
I1
ag60
ag4
(g11
g6
Ntp133
Rp134
(lp135
F0.0
aF0.0
aF0.0
ababsg15
(dp136
g17
I00
sg18
I00
ssg19
I6
sg20
(dp137
sba(itask_sim.amdp_plan_action
AMDPPlanAction
p138
(dp139
g3
g4
(g5
g6
Ntp140
Rp141
(lp142
I1
ag60
ag4
(g11
g6
Ntp143
Rp144
(lp145
F0.0
aF0.0
aF0.0
ababsg15
(dp146
g17
I01
sg18
I00
ssg19
I6
sg20
(dp147
g17
I00
sg18
I01
ssba(itask_sim.amdp_plan_action
AMDPPlanAction
p148
(dp149
g3
g4
(g5
g6
Ntp150
Rp151
(lp152
I4
aS'bl'
p153
ag4
(g11
g6
Ntp154
Rp155
(lp156
F0.0
aF0.0
aF0.0
ababsg15
(dp157
g17
I01
sg18
I01
ssg19
I6
sg20
(dp158
g18
I00
ssba(itask_sim.amdp_plan_action
AMDPPlanAction
p159
(dp160
g3
g4
(g5
g6
Ntp161
Rp162
(lp163
I2
ag49
ag4
(g11
g6
Ntp164
Rp165
(lp166
F0.0
aF0.0
aF0.0
ababsg15
(dp167
g17
I01
sg18
I00
ssg19
I6
sg20
(dp168
g17
I00
ssba(itask_sim.amdp_plan_action
AMDPPlanAction
p169
(dp170
g3
g4
(g5
g6
Ntp171
Rp172
(lp173
I0
aS'apple'
p174
ag4
(g11
g6
Ntp175
Rp176
(lp177
F0.0
aF0.0
aF0.0
ababsg15
(dp178
g17
I00
sg18
I00
ssg19
I6
sg20
(dp179
sba(itask_sim.amdp_plan_action
AMDPPlanAction
p180
(dp181
g3
g4
(g5
g6
Ntp182
Rp183
(lp184
I4
ag60
ag4
(g11
g6
Ntp185
Rp186
(lp187
F0.0
aF0.0
aF0.0
ababsg15
(dp188
g17
I01
sg18
I00
ssg19
I6
sg20
(dp189
g18
I01
ssba(itask_sim.amdp_plan_action
AMDPPlanAction
p190
(dp191
g3
g4
(g5
g6
Ntp192
Rp193
(lp194
I2
ag49
ag4
(g11
g6
Ntp195
Rp196
(lp197
F0.0
aF0.0
aF0.0
ababsg15
(dp198
g17
I01
sg18
I01
ssg19
I6
sg20
(dp199
g17
I00
ssba(itask_sim.amdp_plan_action
AMDPPlanAction
p200
(dp201
g3
g4
(g5
g6
Ntp202
Rp203
(lp204
I4
aS'r'
p205
ag4
(g11
g6
Ntp206
Rp207
(lp208
F0.0
aF0.0
aF0.0
ababsg15
(dp209
g17
I01
sg18
I01
ssg19
I6
sg20
(dp210
g18
I00
ssba(itask_sim.amdp_plan_action
AMDPPlanAction
p211
(dp212
g3
g4
(g5
g6
Ntp213
Rp214
(lp215
I4
aS'lid'
p216
ag4
(g11
g6
Ntp217
Rp218
(lp219
F0.0
aF0.0
aF0.0
ababsg15
(dp220
g17
I01
sg18
I01
ssg19
I6
sg20
(dp221
g18
I00
ssba(itask_sim.amdp_plan_action
AMDPPlanAction
p222
(dp223
g3
g4
(g5
g6
Ntp224
Rp225
(lp226
I4
ag216
ag4
(g11
g6
Ntp227
Rp228
(lp229
F0.0
aF0.0
aF0.0
ababsg15
(dp230
g17
I01
sg18
I00
ssg19
I6
sg20
(dp231
g18
I01
ssba(itask_sim.amdp_plan_action
AMDPPlanAction
p232
(dp233
g3
g4
(g5
g6
Ntp234
Rp235
(lp236
I7
ag49
ag4
(g11
g6
Ntp237
Rp238
(lp239
F0.0
aF0.0
aF0.0
ababsg15
(dp240
g17
I00
sg18
I00
ssg19
I6
sg20
(dp241
sba(itask_sim.amdp_plan_action
AMDPPlanAction
p242
(dp243
g3
g4
(g5
g6
Ntp244
Rp245
(lp246
I4
aS'f'
p247
ag4
(g11
g6
Ntp248
Rp249
(lp250
F0.0
aF0.0
aF0.0
ababsg15
(dp251
g17
I01
sg18
I01
ssg19
I6
sg20
(dp252
g18
I00
ssba(itask_sim.amdp_plan_action
AMDPPlanAction
p253
(dp254
g3
g4
(g5
g6
Ntp255
Rp256
(lp257
I4
aS'fr'
p258
ag4
(g11
g6
Ntp259
Rp260
(lp261
F0.0
aF0.0
aF0.0
ababsg15
(dp262
g17
I00
sg18
I00
ssg19
I6
sg20
(dp263
sba(itask_sim.amdp_plan_action
AMDPPlanAction
p264
(dp265
g3
g4
(g5
g6
Ntp266
Rp267
(lp268
I6
ag49
ag4
(g11
g6
Ntp269
Rp270
(lp271
F0.0
aF0.0
aF0.0
ababsg15
(dp272
g17
I00
sg18
I00
ssg19
I6
sg20
(dp273
sba(itask_sim.amdp_plan_action
AMDPPlanAction
p274
(dp275
g3
g4
(g5
g6
Ntp276
Rp277
(lp278
I3
ag49
ag4
(g11
g6
Ntp279
Rp280
(lp281
F0.0
aF0.0
aF0.0
ababsg15
(dp282
g17
I00
sg18
I00
ssg19
I6
sg20
(dp283
sba(itask_sim.amdp_plan_action
AMDPPlanAction
p284
(dp285
g3
g4
(g5
g6
Ntp286
Rp287
(lp288
I1
ag60
ag4
(g11
g6
Ntp289
Rp290
(lp291
F0.0
aF0.0
aF0.0
ababsg15
(dp292
g17
I01
sg18
I00
ssg19
I6
sg20
(dp293
sba(itask_sim.amdp_plan_action
AMDPPlanAction
p294
(dp295
g3
g4
(g5
g6
Ntp296
Rp297
(lp298
I4
aS'b'
p299
ag4
(g11
g6
Ntp300
Rp301
(lp302
F0.0
aF0.0
aF0.0
ababsg15
(dp303
g17
I01
sg18
I01
ssg19
I6
sg20
(dp304
g18
I00
ssba(itask_sim.amdp_plan_action
AMDPPlanAction
p305
(dp306
g3
g4
(g5
g6
Ntp307
Rp308
(lp309
I1
aS'table'
p310
ag4
(g11
g6
Ntp311
Rp312
(lp313
F0.0
aF0.0
aF0.0
ababsg15
(dp314
g17
I01
sg18
I01
ssg19
I6
sg20
(dp315
g17
I00
sg18
I00
ssba(itask_sim.amdp_plan_action
AMDPPlanAction
p316
(dp317
g3
g4
(g5
g6
Ntp318
Rp319
(lp320
I4
aS'fl'
p321
ag4
(g11
g6
Ntp322
Rp323
(lp324
F0.0
aF0.0
aF0.0
ababsg15
(dp325
g17
I01
sg18
I01
ssg19
I6
sg20
(dp326
g18
I00
ssba(itask_sim.amdp_plan_action
AMDPPlanAction
p327
(dp328
g3
g4
(g5
g6
Ntp329
Rp330
(lp331
I0
aS'lid'
p332
ag4
(g11
g6
Ntp333
Rp334
(lp335
F0.0
aF0.0
aF0.0
ababsg15
(dp336
g17
I00
sg18
I00
ssg19
I6
sg20
(dp337
sba(itask_sim.amdp_plan_action
AMDPPlanAction
p338
(dp339
g3
g4
(g5
g6
Ntp340
Rp341
(lp342
I2
ag49
ag4
(g11
g6
Ntp343
Rp344
(lp345
F0.0
aF0.0
aF0.0
ababsg15
(dp346
g17
I00
sg18
I01
ssg19
I6
sg20
(dp347
sba.