(lp0
(itask_sim.amdp_plan_action
AMDPPlanAction
p1
(dp2
S'action'
p3
ccopy_reg
_reconstructor
p4
(ctmpANZkOl
_task_sim__Action
p5
c__builtin__
object
p6
Ntp7
Rp8
(lp9
I0
aS'lid'
p10
ag4
(cgeometry_msgs.msg._Point
Point
p11
g6
Ntp12
Rp13
(lp14
F0.0
aF0.0
aF0.0
ababsS'preconditions'
p15
(dp16
S'apple_in_box'
p17
I00
sS'gripper_holding_lid'
p18
I00
sS'lid_closing_box'
p19
I01
sS'gripper_holding_apple'
p20
I00
ssS'amdp_id'
p21
I8
sS'effects'
p22
(dp23
g18
I01
ssba(itask_sim.amdp_plan_action
AMDPPlanAction
p24
(dp25
g3
g4
(g5
g6
Ntp26
Rp27
(lp28
I4
aS'l'
p29
ag4
(g11
g6
Ntp30
Rp31
(lp32
F0.0
aF0.0
aF0.0
ababsg15
(dp33
g17
I00
sg18
I01
sg19
I01
sg20
I00
ssg21
I8
sg22
(dp34
g19
I00
ssba(itask_sim.amdp_plan_action
AMDPPlanAction
p35
(dp36
g3
g4
(g5
g6
Ntp37
Rp38
(lp39
I0
aS'apple'
p40
ag4
(g11
g6
Ntp41
Rp42
(lp43
F0.0
aF0.0
aF0.0
ababsg15
(dp44
g17
I00
sg18
I01
sg19
I00
sg20
I00
ssg21
I8
sg22
(dp45
g18
I00
sg20
I01
ssba(itask_sim.amdp_plan_action
AMDPPlanAction
p46
(dp47
g3
g4
(g5
g6
Ntp48
Rp49
(lp50
I5
aS''
p51
ag4
(g11
g6
Ntp52
Rp53
(lp54
F0.0
aF0.0
aF0.0
ababsg15
(dp55
g17
I00
sg18
I00
sg19
I00
sg20
I01
ssg21
I8
sg22
(dp56
sba(itask_sim.amdp_plan_action
AMDPPlanAction
p57
(dp58
g3
g4
(g5
g6
Ntp59
Rp60
(lp61
I4
aS'box'
p62
ag4
(g11
g6
Ntp63
Rp64
(lp65
F0.0
aF0.0
aF0.0
ababsg15
(dp66
g17
I00
sg18
I00
sg19
I00
sg20
I01
ssg21
I8
sg22
(dp67
sba(itask_sim.amdp_plan_action
AMDPPlanAction
p68
(dp69
g3
g4
(g5
g6
Ntp70
Rp71
(lp72
I2
ag51
ag4
(g11
g6
Ntp73
Rp74
(lp75
F0.0
aF0.0
aF0.0
ababsg15
(dp76
g17
I00
sg18
I00
sg19
I00
sg20
I01
ssg21
I8
sg22
(dp77
g17
I01
sg20
I00
ssba(itask_sim.amdp_plan_action
AMDPPlanAction
p78
(dp79
g3
g4
(g5
g6
Ntp80
Rp81
(lp82
I0
aS'lid'
p83
ag4
(g11
g6
Ntp84
Rp85
(lp86
F0.0
aF0.0
aF0.0
ababsg15
(dp87
g17
I01
sg18
I00
sg19
I00
sg20
I00
ssg21
I8
sg22
(dp88
g18
I01
ssba(itask_sim.amdp_plan_action
AMDPPlanAction
p89
(dp90
g3
g4
(g5
g6
Ntp91
Rp92
(lp93
I5
ag51
ag4
(g11
g6
Ntp94
Rp95
(lp96
F0.0
aF0.0
aF0.0
ababsg15
(dp97
g17
I01
sg18
I01
sg19
I00
sg20
I00
ssg21
I8
sg22
(dp98
sba(itask_sim.amdp_plan_action
AMDPPlanAction
p99
(dp100
g3
g4
(g5
g6
Ntp101
Rp102
(lp103
I4
ag62
ag4
(g11
g6
Ntp104
Rp105
(lp106
F0.0
aF0.0
aF0.0
ababsg15
(dp107
g17
I01
sg18
I01
sg19
I00
sg20
I00
ssg21
I8
sg22
(dp108
sba(itask_sim.amdp_plan_action
AMDPPlanAction
p109
(dp110
g3
g4
(g5
g6
Ntp111
Rp112
(lp113
I2
ag51
ag4
(g11
g6
Ntp114
Rp115
(lp116
F0.0
aF0.0
aF0.0
ababsg15
(dp117
g17
I01
sg18
I01
sg19
I00
sg20
I00
ssg21
I8
sg22
(dp118
g18
I00
sg19
I01
ssba(itask_sim.amdp_plan_action
AMDPPlanAction
p119
(dp120
g3
g4
(g5
g6
Ntp121
Rp122
(lp123
I4
aS'br'
p124
ag4
(g11
g6
Ntp125
Rp126
(lp127
F0.0
aF0.0
aF0.0
ababsg15
(dp128
g17
I00
sg18
I01
sg19
I01
sg20
I00
ssg21
I8
sg22
(dp129
g19
I00
ssba(itask_sim.amdp_plan_action
AMDPPlanAction
p130
(dp131
g3
g4
(g5
g6
Ntp132
Rp133
(lp134
I1
ag62
ag4
(g11
g6
Ntp135
Rp136
(lp137
F0.0
aF0.0
aF0.0
ababsg15
(dp138
g17
I00
sg18
I00
sg19
I00
sg20
I01
ssg21
I8
sg22
(dp139
g17
I01
sg20
I00
ssba(itask_sim.amdp_plan_action
AMDPPlanAction
p140
(dp141
g3
g4
(g5
g6
Ntp142
Rp143
(lp144
I1
ag62
ag4
(g11
g6
Ntp145
Rp146
(lp147
F0.0
aF0.0
aF0.0
ababsg15
(dp148
g17
I01
sg18
I01
sg19
I00
sg20
I00
ssg21
I8
sg22
(dp149
g18
I00
sg19
I01
ssba(itask_sim.amdp_plan_action
AMDPPlanAction
p150
(dp151
g3
g4
(g5
g6
Ntp152
Rp153
(lp154
I4
aS'bl'
p155
ag4
(g11
g6
Ntp156
Rp157
(lp158
F0.0
aF0.0
aF0.0
ababsg15
(dp159
g17
I00
sg18
I01
sg19
I01
sg20
I00
ssg21
I8
sg22
(dp160
g19
I00
ssba(itask_sim.amdp_plan_action
AMDPPlanAction
p161
(dp162
g3
g4
(g5
g6
Ntp163
Rp164
(lp165
I2
ag51
ag4
(g11
g6
Ntp166
Rp167
(lp168
F0.0
aF0.0
aF0.0
ababsg15
(dp169
g17
I00
sg18
I01
sg19
I00
sg20
I00
ssg21
I8
sg22
(dp170
g18
I00
ssba(itask_sim.amdp_plan_action
AMDPPlanAction
p171
(dp172
g3
g4
(g5
g6
Ntp173
Rp174
(lp175
I0
aS'apple'
p176
ag4
(g11
g6
Ntp177
Rp178
(lp179
F0.0
aF0.0
aF0.0
ababsg15
(dp180
g17
I00
sg18
I00
sg19
I00
sg20
I00
ssg21
I8
sg22
(dp181
g20
I01
ssba(itask_sim.amdp_plan_action
AMDPPlanAction
p182
(dp183
g3
g4
(g5
g6
Ntp184
Rp185
(lp186
I4
ag62
ag4
(g11
g6
Ntp187
Rp188
(lp189
F0.0
aF0.0
aF0.0
ababsg15
(dp190
g17
I01
sg18
I01
sg19
I00
sg20
I00
ssg21
I8
sg22
(dp191
g19
I01
ssba(itask_sim.amdp_plan_action
AMDPPlanAction
p192
(dp193
g3
g4
(g5
g6
Ntp194
Rp195
(lp196
I2
ag51
ag4
(g11
g6
Ntp197
Rp198
(lp199
F0.0
aF0.0
aF0.0
ababsg15
(dp200
g17
I01
sg18
I01
sg19
I01
sg20
I00
ssg21
I8
sg22
(dp201
g18
I00
ssba(itask_sim.amdp_plan_action
AMDPPlanAction
p202
(dp203
g3
g4
(g5
g6
Ntp204
Rp205
(lp206
I4
aS'r'
p207
ag4
(g11
g6
Ntp208
Rp209
(lp210
F0.0
aF0.0
aF0.0
ababsg15
(dp211
g17
I00
sg18
I01
sg19
I01
sg20
I00
ssg21
I8
sg22
(dp212
g19
I00
ssba(itask_sim.amdp_plan_action
AMDPPlanAction
p213
(dp214
g3
g4
(g5
g6
Ntp215
Rp216
(lp217
I0
aS'apple'
p218
ag4
(g11
g6
Ntp219
Rp220
(lp221
F0.0
aF0.0
aF0.0
ababsg15
(dp222
g17
I00
sg18
I01
sg19
I00
sg20
I00
ssg21
I8
sg22
(dp223
g18
I00
ssba(itask_sim.amdp_plan_action
AMDPPlanAction
p224
(dp225
g3
g4
(g5
g6
Ntp226
Rp227
(lp228
I4
aS'lid'
p229
ag4
(g11
g6
Ntp230
Rp231
(lp232
F0.0
aF0.0
aF0.0
ababsg15
(dp233
g17
I00
sg18
I01
sg19
I01
sg20
I00
ssg21
I8
sg22
(dp234
g19
I00
ssba(itask_sim.amdp_plan_action
AMDPPlanAction
p235
(dp236
g3
g4
(g5
g6
Ntp237
Rp238
(lp239
I5
ag51
ag4
(g11
g6
Ntp240
Rp241
(lp242
F0.0
aF0.0
aF0.0
ababsg15
(dp243
g17
I00
sg18
I00
sg19
I00
sg20
I00
ssg21
I8
sg22
(dp244
sba(itask_sim.amdp_plan_action
AMDPPlanAction
p245
(dp246
g3
g4
(g5
g6
Ntp247
Rp248
(lp249
I4
ag229
ag4
(g11
g6
Ntp250
Rp251
(lp252
F0.0
aF0.0
aF0.0
ababsg15
(dp253
g17
I01
sg18
I01
sg19
I00
sg20
I00
ssg21
I8
sg22
(dp254
g19
I01
ssba(itask_sim.amdp_plan_action
AMDPPlanAction
p255
(dp256
g3
g4
(g5
g6
Ntp257
Rp258
(lp259
I7
ag51
ag4
(g11
g6
Ntp260
Rp261
(lp262
F0.0
aF0.0
aF0.0
ababsg15
(dp263
g17
I00
sg18
I00
sg19
I00
sg20
I01
ssg21
I8
sg22
(dp264
sba(itask_sim.amdp_plan_action
AMDPPlanAction
p265
(dp266
g3
g4
(g5
g6
Ntp267
Rp268
(lp269
I4
aS'f'
p270
ag4
(g11
g6
Ntp271
Rp272
(lp273
F0.0
aF0.0
aF0.0
ababsg15
(dp274
g17
I00
sg18
I01
sg19
I01
sg20
I00
ssg21
I8
sg22
(dp275
g19
I00
ssba(itask_sim.amdp_plan_action
AMDPPlanAction
p276
(dp277
g3
g4
(g5
g6
Ntp278
Rp279
(lp280
I4
aS'fr'
p281
ag4
(g11
g6
Ntp282
Rp283
(lp284
F0.0
aF0.0
aF0.0
ababsg15
(dp285
g17
I00
sg18
I00
sg19
I00
sg20
I00
ssg21
I8
sg22
(dp286
sba(itask_sim.amdp_plan_action
AMDPPlanAction
p287
(dp288
g3
g4
(g5
g6
Ntp289
Rp290
(lp291
I6
ag51
ag4
(g11
g6
Ntp292
Rp293
(lp294
F0.0
aF0.0
aF0.0
ababsg15
(dp295
g17
I00
sg18
I00
sg19
I00
sg20
I00
ssg21
I8
sg22
(dp296
sba(itask_sim.amdp_plan_action
AMDPPlanAction
p297
(dp298
g3
g4
(g5
g6
Ntp299
Rp300
(lp301
I3
ag51
ag4
(g11
g6
Ntp302
Rp303
(lp304
F0.0
aF0.0
aF0.0
ababsg15
(dp305
g17
I00
sg18
I00
sg19
I00
sg20
I00
ssg21
I8
sg22
(dp306
g20
I01
ssba(itask_sim.amdp_plan_action
AMDPPlanAction
p307
(dp308
g3
g4
(g5
g6
Ntp309
Rp310
(lp311
I1
ag62
ag4
(g11
g6
Ntp312
Rp313
(lp314
F0.0
aF0.0
aF0.0
ababsg15
(dp315
g17
I01
sg18
I01
sg19
I00
sg20
I00
ssg21
I8
sg22
(dp316
sba(itask_sim.amdp_plan_action
AMDPPlanAction
p317
(dp318
g3
g4
(g5
g6
Ntp319
Rp320
(lp321
I4
aS'b'
p322
ag4
(g11
g6
Ntp323
Rp324
(lp325
F0.0
aF0.0
aF0.0
ababsg15
(dp326
g17
I00
sg18
I01
sg19
I01
sg20
I00
ssg21
I8
sg22
(dp327
g19
I00
ssba(itask_sim.amdp_plan_action
AMDPPlanAction
p328
(dp329
g3
g4
(g5
g6
Ntp330
Rp331
(lp332
I1
aS'table'
p333
ag4
(g11
g6
Ntp334
Rp335
(lp336
F0.0
aF0.0
aF0.0
ababsg15
(dp337
g17
I00
sg18
I01
sg19
I01
sg20
I00
ssg21
I8
sg22
(dp338
g18
I00
sg19
I00
ssba(itask_sim.amdp_plan_action
AMDPPlanAction
p339
(dp340
g3
g4
(g5
g6
Ntp341
Rp342
(lp343
I0
aS'apple'
p344
ag4
(g11
g6
Ntp345
Rp346
(lp347
F0.0
aF0.0
aF0.0
ababsg15
(dp348
g17
I00
sg18
I00
sg19
I00
sg20
I00
ssg21
I8
sg22
(dp349
sba(itask_sim.amdp_plan_action
AMDPPlanAction
p350
(dp351
g3
g4
(g5
g6
Ntp352
Rp353
(lp354
I4
aS'fl'
p355
ag4
(g11
g6
Ntp356
Rp357
(lp358
F0.0
aF0.0
aF0.0
ababsg15
(dp359
g17
I00
sg18
I01
sg19
I01
sg20
I00
ssg21
I8
sg22
(dp360
g19
I00
ssba(itask_sim.amdp_plan_action
AMDPPlanAction
p361
(dp362
g3
g4
(g5
g6
Ntp363
Rp364
(lp365
I0
aS'lid'
p366
ag4
(g11
g6
Ntp367
Rp368
(lp369
F0.0
aF0.0
aF0.0
ababsg15
(dp370
g17
I01
sg18
I00
sg19
I00
sg20
I00
ssg21
I8
sg22
(dp371
sba(itask_sim.amdp_plan_action
AMDPPlanAction
p372
(dp373
g3
g4
(g5
g6
Ntp374
Rp375
(lp376
I5
ag51
ag4
(g11
g6
Ntp377
Rp378
(lp379
F0.0
aF0.0
aF0.0
ababsg15
(dp380
g17
I01
sg18
I00
sg19
I00
sg20
I00
ssg21
I8
sg22
(dp381
sba(itask_sim.amdp_plan_action
AMDPPlanAction
p382
(dp383
g3
g4
(g5
g6
Ntp384
Rp385
(lp386
I2
ag51
ag4
(g11
g6
Ntp387
Rp388
(lp389
F0.0
aF0.0
aF0.0
ababsg15
(dp390
g17
I01
sg18
I00
sg19
I01
sg20
I00
ssg21
I8
sg22
(dp391
sba.