(lp0
(itask_sim.amdp_plan_action
AMDPPlanAction
p1
(dp2
S'action_object'
p3
S'lid'
p4
sS'preconditions'
p5
(dp6
S'gripper_holding_lid'
p7
I00
sS'lid_closing_box'
p8
I01
ssS'amdp_id'
p9
I6
sS'action_type'
p10
I0
sS'effects'
p11
(dp12
g7
I01
ssba(itask_sim.amdp_plan_action
AMDPPlanAction
p13
(dp14
g3
S'l'
p15
sg5
(dp16
g7
I01
sg8
I01
ssg9
I6
sg10
I4
sg11
(dp17
g8
I00
ssba(itask_sim.amdp_plan_action
AMDPPlanAction
p18
(dp19
g3
S'apple'
p20
sg5
(dp21
g7
I01
sg8
I00
ssg9
I6
sg10
I0
sg11
(dp22
g7
I00
ssba(itask_sim.amdp_plan_action
AMDPPlanAction
p23
(dp24
g3
S''
p25
sg5
(dp26
g7
I00
sg8
I00
ssg9
I6
sg10
I5
sg11
(dp27
sba(itask_sim.amdp_plan_action
AMDPPlanAction
p28
(dp29
g3
S'box'
p30
sg5
(dp31
g7
I00
sg8
I00
ssg9
I6
sg10
I4
sg11
(dp32
sba(itask_sim.amdp_plan_action
AMDPPlanAction
p33
(dp34
g3
g25
sg5
(dp35
g7
I00
sg8
I00
ssg9
I6
sg10
I2
sg11
(dp36
sba(itask_sim.amdp_plan_action
AMDPPlanAction
p37
(dp38
g3
S'lid'
p39
sg5
(dp40
g7
I00
sg8
I00
ssg9
I6
sg10
I0
sg11
(dp41
g7
I01
ssba(itask_sim.amdp_plan_action
AMDPPlanAction
p42
(dp43
g3
g25
sg5
(dp44
g7
I01
sg8
I00
ssg9
I6
sg10
I5
sg11
(dp45
sba(itask_sim.amdp_plan_action
AMDPPlanAction
p46
(dp47
g3
g30
sg5
(dp48
g7
I01
sg8
I00
ssg9
I6
sg10
I4
sg11
(dp49
sba(itask_sim.amdp_plan_action
AMDPPlanAction
p50
(dp51
g3
g25
sg5
(dp52
g7
I01
sg8
I00
ssg9
I6
sg10
I2
sg11
(dp53
g7
I00
sg8
I01
ssba(itask_sim.amdp_plan_action
AMDPPlanAction
p54
(dp55
g3
S'br'
p56
sg5
(dp57
g7
I01
sg8
I01
ssg9
I6
sg10
I4
sg11
(dp58
g8
I00
ssba(itask_sim.amdp_plan_action
AMDPPlanAction
p59
(dp60
g3
g30
sg5
(dp61
g7
I00
sg8
I00
ssg9
I6
sg10
I1
sg11
(dp62
sba(itask_sim.amdp_plan_action
AMDPPlanAction
p63
(dp64
g3
g30
sg5
(dp65
g7
I01
sg8
I00
ssg9
I6
sg10
I1
sg11
(dp66
g7
I00
sg8
I01
ssba(itask_sim.amdp_plan_action
AMDPPlanAction
p67
(dp68
g3
S'bl'
p69
sg5
(dp70
g7
I01
sg8
I01
ssg9
I6
sg10
I4
sg11
(dp71
g8
I00
ssba(itask_sim.amdp_plan_action
AMDPPlanAction
p72
(dp73
g3
g25
sg5
(dp74
g7
I01
sg8
I00
ssg9
I6
sg10
I2
sg11
(dp75
g7
I00
ssba(itask_sim.amdp_plan_action
AMDPPlanAction
p76
(dp77
g3
S'apple'
p78
sg5
(dp79
g7
I00
sg8
I00
ssg9
I6
sg10
I0
sg11
(dp80
sba(itask_sim.amdp_plan_action
AMDPPlanAction
p81
(dp82
g3
g30
sg5
(dp83
g7
I01
sg8
I00
ssg9
I6
sg10
I4
sg11
(dp84
g8
I01
ssba(itask_sim.amdp_plan_action
AMDPPlanAction
p85
(dp86
g3
g25
sg5
(dp87
g7
I01
sg8
I01
ssg9
I6
sg10
I2
sg11
(dp88
g7
I00
ssba(itask_sim.amdp_plan_action
AMDPPlanAction
p89
(dp90
g3
S'r'
p91
sg5
(dp92
g7
I01
sg8
I01
ssg9
I6
sg10
I4
sg11
(dp93
g8
I00
ssba(itask_sim.amdp_plan_action
AMDPPlanAction
p94
(dp95
g3
S'lid'
p96
sg5
(dp97
g7
I01
sg8
I01
ssg9
I6
sg10
I4
sg11
(dp98
g8
I00
ssba(itask_sim.amdp_plan_action
AMDPPlanAction
p99
(dp100
g3
g96
sg5
(dp101
g7
I01
sg8
I00
ssg9
I6
sg10
I4
sg11
(dp102
g8
I01
ssba(itask_sim.amdp_plan_action
AMDPPlanAction
p103
(dp104
g3
g25
sg5
(dp105
g7
I00
sg8
I00
ssg9
I6
sg10
I7
sg11
(dp106
sba(itask_sim.amdp_plan_action
AMDPPlanAction
p107
(dp108
g3
S'f'
p109
sg5
(dp110
g7
I01
sg8
I01
ssg9
I6
sg10
I4
sg11
(dp111
g8
I00
ssba(itask_sim.amdp_plan_action
AMDPPlanAction
p112
(dp113
g3
S'fr'
p114
sg5
(dp115
g7
I00
sg8
I00
ssg9
I6
sg10
I4
sg11
(dp116
sba(itask_sim.amdp_plan_action
AMDPPlanAction
p117
(dp118
g3
g25
sg5
(dp119
g7
I00
sg8
I00
ssg9
I6
sg10
I6
sg11
(dp120
sba(itask_sim.amdp_plan_action
AMDPPlanAction
p121
(dp122
g3
g25
sg5
(dp123
g7
I00
sg8
I00
ssg9
I6
sg10
I3
sg11
(dp124
sba(itask_sim.amdp_plan_action
AMDPPlanAction
p125
(dp126
g3
g30
sg5
(dp127
g7
I01
sg8
I00
ssg9
I6
sg10
I1
sg11
(dp128
sba(itask_sim.amdp_plan_action
AMDPPlanAction
p129
(dp130
g3
S'b'
p131
sg5
(dp132
g7
I01
sg8
I01
ssg9
I6
sg10
I4
sg11
(dp133
g8
I00
ssba(itask_sim.amdp_plan_action
AMDPPlanAction
p134
(dp135
g3
S'table'
p136
sg5
(dp137
g7
I01
sg8
I01
ssg9
I6
sg10
I1
sg11
(dp138
g7
I00
sg8
I00
ssba(itask_sim.amdp_plan_action
AMDPPlanAction
p139
(dp140
g3
S'fl'
p141
sg5
(dp142
g7
I01
sg8
I01
ssg9
I6
sg10
I4
sg11
(dp143
g8
I00
ssba(itask_sim.amdp_plan_action
AMDPPlanAction
p144
(dp145
g3
S'lid'
p146
sg5
(dp147
g7
I00
sg8
I00
ssg9
I6
sg10
I0
sg11
(dp148
sba(itask_sim.amdp_plan_action
AMDPPlanAction
p149
(dp150
g3
g25
sg5
(dp151
g7
I00
sg8
I01
ssg9
I6
sg10
I2
sg11
(dp152
sba.