(dp0
(itask_sim.amdp_plan_action
AMDPPlanAction
p1
(dp2
S'action_object'
p3
S''
p4
sS'preconditions'
p5
(dp6
S'apple_in_box'
p7
I00
sS'gripper_holding_lid'
p8
I00
sS'lid_closing_box'
p9
I00
sS'gripper_holding_apple'
p10
I01
ssS'amdp_id'
p11
I8
sS'action_type'
p12
I7
sS'effects'
p13
(dp14
sbS'7:-f'
p15
s(itask_sim.amdp_plan_action
AMDPPlanAction
p16
(dp17
g3
S'fl'
p18
sg5
(dp19
g7
I00
sg8
I01
sg9
I01
sg10
I00
ssg11
I8
sg12
I4
sg13
(dp20
g9
I00
ssbS'4:fl'
p21
s(itask_sim.amdp_plan_action
AMDPPlanAction
p22
(dp23
g3
S'table'
p24
sg5
(dp25
g7
I00
sg8
I01
sg9
I01
sg10
I00
ssg11
I8
sg12
I1
sg13
(dp26
g8
I00
sg9
I00
ssbS'1:table'
p27
s(itask_sim.amdp_plan_action
AMDPPlanAction
p28
(dp29
g3
S'l'
p30
sg5
(dp31
g7
I00
sg8
I01
sg9
I01
sg10
I00
ssg11
I8
sg12
I4
sg13
(dp32
g9
I00
ssbS'4:l'
p33
s(itask_sim.amdp_plan_action
AMDPPlanAction
p34
(dp35
g3
S'lid'
p36
sg5
(dp37
g7
I01
sg8
I01
sg9
I00
sg10
I00
ssg11
I8
sg12
I4
sg13
(dp38
g9
I01
ssbS'4:lid'
p39
s(itask_sim.amdp_plan_action
AMDPPlanAction
p40
(dp41
g3
g4
sg5
(dp42
g7
I01
sg8
I01
sg9
I00
sg10
I00
ssg11
I8
sg12
I2
sg13
(dp43
g8
I00
sg9
I01
ssbS'2:'
p44
s(itask_sim.amdp_plan_action
AMDPPlanAction
p45
(dp46
g3
S'box'
p47
sg5
(dp48
g7
I01
sg8
I01
sg9
I00
sg10
I00
ssg11
I8
sg12
I4
sg13
(dp49
sbS'4:box-f'
p50
s(itask_sim.amdp_plan_action
AMDPPlanAction
p51
(dp52
g3
S'lid'
p53
sg5
(dp54
g7
I00
sg8
I00
sg9
I01
sg10
I00
ssg11
I8
sg12
I0
sg13
(dp55
g8
I01
ssbS'0:lid'
p56
s(itask_sim.amdp_plan_action
AMDPPlanAction
p57
(dp58
g3
S'apple'
p59
sg5
(dp60
g7
I00
sg8
I01
sg9
I00
sg10
I00
ssg11
I8
sg12
I0
sg13
(dp61
g8
I00
ssbS'0:apple'
p62
s(itask_sim.amdp_plan_action
AMDPPlanAction
p63
(dp64
g3
g4
sg5
(dp65
g7
I00
sg8
I00
sg9
I00
sg10
I00
ssg11
I8
sg12
I6
sg13
(dp66
sbS'6:-f'
p67
s(itask_sim.amdp_plan_action
AMDPPlanAction
p68
(dp69
g3
S'apple'
p70
sg5
(dp71
g7
I00
sg8
I00
sg9
I00
sg10
I00
ssg11
I8
sg12
I0
sg13
(dp72
g10
I01
ssbS'0:apple'
p73
s(itask_sim.amdp_plan_action
AMDPPlanAction
p74
(dp75
g3
g4
sg5
(dp76
g7
I00
sg8
I00
sg9
I00
sg10
I01
ssg11
I8
sg12
I5
sg13
(dp77
sbS'5:-f'
p78
s(itask_sim.amdp_plan_action
AMDPPlanAction
p79
(dp80
g3
S'lid'
p81
sg5
(dp82
g7
I01
sg8
I00
sg9
I00
sg10
I00
ssg11
I8
sg12
I0
sg13
(dp83
g8
I01
ssbS'0:lid'
p84
s(itask_sim.amdp_plan_action
AMDPPlanAction
p85
(dp86
g3
S'apple'
p87
sg5
(dp88
g7
I00
sg8
I01
sg9
I00
sg10
I00
ssg11
I8
sg12
I0
sg13
(dp89
g8
I00
sg10
I01
ssbS'0:apple'
p90
sS'start'
p91
g91
s(itask_sim.amdp_plan_action
AMDPPlanAction
p92
(dp93
g3
S'apple'
p94
sg5
(dp95
g7
I00
sg8
I00
sg9
I00
sg10
I00
ssg11
I8
sg12
I0
sg13
(dp96
sbS'0:apple-f'
p97
s(itask_sim.amdp_plan_action
AMDPPlanAction
p98
(dp99
g3
g4
sg5
(dp100
g7
I00
sg8
I00
sg9
I00
sg10
I01
ssg11
I8
sg12
I2
sg13
(dp101
g7
I01
sg10
I00
ssbS'2:'
p102
s(itask_sim.amdp_plan_action
AMDPPlanAction
p103
(dp104
g3
g4
sg5
(dp105
g7
I01
sg8
I01
sg9
I01
sg10
I00
ssg11
I8
sg12
I2
sg13
(dp106
g8
I00
ssbS'2:'
p107
s(itask_sim.amdp_plan_action
AMDPPlanAction
p108
(dp109
g3
S'bl'
p110
sg5
(dp111
g7
I00
sg8
I01
sg9
I01
sg10
I00
ssg11
I8
sg12
I4
sg13
(dp112
g9
I00
ssbS'4:bl'
p113
s(itask_sim.amdp_plan_action
AMDPPlanAction
p114
(dp115
g3
S'b'
p116
sg5
(dp117
g7
I00
sg8
I01
sg9
I01
sg10
I00
ssg11
I8
sg12
I4
sg13
(dp118
g9
I00
ssbS'4:b'
p119
s(itask_sim.amdp_plan_action
AMDPPlanAction
p120
(dp121
g3
S'fr'
p122
sg5
(dp123
g7
I00
sg8
I00
sg9
I00
sg10
I00
ssg11
I8
sg12
I4
sg13
(dp124
sbS'4:fr-f'
p125
s(itask_sim.amdp_plan_action
AMDPPlanAction
p126
(dp127
g3
g47
sg5
(dp128
g7
I01
sg8
I01
sg9
I00
sg10
I00
ssg11
I8
sg12
I4
sg13
(dp129
g9
I01
ssbS'4:box'
p130
s(itask_sim.amdp_plan_action
AMDPPlanAction
p131
(dp132
g3
S'r'
p133
sg5
(dp134
g7
I00
sg8
I01
sg9
I01
sg10
I00
ssg11
I8
sg12
I4
sg13
(dp135
g9
I00
ssbS'4:r'
p136
s(itask_sim.amdp_plan_action
AMDPPlanAction
p137
(dp138
g3
S'br'
p139
sg5
(dp140
g7
I00
sg8
I01
sg9
I01
sg10
I00
ssg11
I8
sg12
I4
sg13
(dp141
g9
I00
ssbS'4:br'
p142
s(itask_sim.amdp_plan_action
AMDPPlanAction
p143
(dp144
g3
S'f'
p145
sg5
(dp146
g7
I00
sg8
I01
sg9
I01
sg10
I00
ssg11
I8
sg12
I4
sg13
(dp147
g9
I00
ssbS'4:f'
p148
s(itask_sim.amdp_plan_action
AMDPPlanAction
p149
(dp150
g3
g47
sg5
(dp151
g7
I01
sg8
I01
sg9
I00
sg10
I00
ssg11
I8
sg12
I1
sg13
(dp152
sbS'1:box-f'
p153
s(itask_sim.amdp_plan_action
AMDPPlanAction
p154
(dp155
g3
g47
sg5
(dp156
g7
I00
sg8
I00
sg9
I00
sg10
I01
ssg11
I8
sg12
I1
sg13
(dp157
g7
I01
sg10
I00
ssbS'1:box'
p158
s(itask_sim.amdp_plan_action
AMDPPlanAction
p159
(dp160
g3
g47
sg5
(dp161
g7
I00
sg8
I00
sg9
I00
sg10
I01
ssg11
I8
sg12
I4
sg13
(dp162
sbS'4:box-f'
p163
s(itask_sim.amdp_plan_action
AMDPPlanAction
p164
(dp165
g3
S'lid'
p166
sg5
(dp167
g7
I01
sg8
I00
sg9
I00
sg10
I00
ssg11
I8
sg12
I0
sg13
(dp168
sbS'0:lid-f'
p169
s(itask_sim.amdp_plan_action
AMDPPlanAction
p170
(dp171
g3
g4
sg5
(dp172
g7
I00
sg8
I01
sg9
I00
sg10
I00
ssg11
I8
sg12
I2
sg13
(dp173
g8
I00
ssbS'2:'
p174
s(itask_sim.amdp_plan_action
AMDPPlanAction
p175
(dp176
g3
g4
sg5
(dp177
g7
I00
sg8
I00
sg9
I00
sg10
I00
ssg11
I8
sg12
I5
sg13
(dp178
sbS'5:-f'
p179
s(itask_sim.amdp_plan_action
AMDPPlanAction
p180
(dp181
g3
g4
sg5
(dp182
g7
I01
sg8
I00
sg9
I01
sg10
I00
ssg11
I8
sg12
I2
sg13
(dp183
sbS'2:-f'
p184
s(itask_sim.amdp_plan_action
AMDPPlanAction
p185
(dp186
g3
g36
sg5
(dp187
g7
I00
sg8
I01
sg9
I01
sg10
I00
ssg11
I8
sg12
I4
sg13
(dp188
g9
I00
ssbS'4:lid'
p189
s(itask_sim.amdp_plan_action
AMDPPlanAction
p190
(dp191
g3
g4
sg5
(dp192
g7
I01
sg8
I00
sg9
I00
sg10
I00
ssg11
I8
sg12
I5
sg13
(dp193
sbS'5:-f'
p194
s(itask_sim.amdp_plan_action
AMDPPlanAction
p195
(dp196
g3
g4
sg5
(dp197
g7
I00
sg8
I00
sg9
I00
sg10
I00
ssg11
I8
sg12
I3
sg13
(dp198
g10
I01
ssbS'3:'
p199
s(itask_sim.amdp_plan_action
AMDPPlanAction
p200
(dp201
g3
g4
sg5
(dp202
g7
I01
sg8
I01
sg9
I00
sg10
I00
ssg11
I8
sg12
I5
sg13
(dp203
sbS'5:-f'
p204
s(itask_sim.amdp_plan_action
AMDPPlanAction
p205
(dp206
g3
g47
sg5
(dp207
g7
I01
sg8
I01
sg9
I00
sg10
I00
ssg11
I8
sg12
I1
sg13
(dp208
g8
I00
sg9
I01
ssbS'1:box'
p209
s.