(dp0
(itask_sim.amdp_plan_action
AMDPPlanAction
p1
(dp2
S'action'
p3
ccopy_reg
_reconstructor
p4
(ctmpANZkOl
_task_sim__Action
p5
c__builtin__
object
p6
Ntp7
Rp8
(lp9
I7
aS''
p10
ag4
(cgeometry_msgs.msg._Point
Point
p11
g6
Ntp12
Rp13
(lp14
F0.0
aF0.0
aF0.0
ababsS'preconditions'
p15
(dp16
S'apple_in_box'
p17
I00
sS'gripper_holding_lid'
p18
I00
sS'lid_closing_box'
p19
I00
sS'gripper_holding_apple'
p20
I01
ssS'amdp_id'
p21
I8
sS'effects'
p22
(dp23
sbS'7:-f'
p24
s(itask_sim.amdp_plan_action
AMDPPlanAction
p25
(dp26
g3
g4
(g5
g6
Ntp27
Rp28
(lp29
I4
aS'fl'
p30
ag4
(g11
g6
Ntp31
Rp32
(lp33
F0.0
aF0.0
aF0.0
ababsg15
(dp34
g17
I00
sg18
I01
sg19
I01
sg20
I00
ssg21
I8
sg22
(dp35
g19
I00
ssbS'4:fl'
p36
s(itask_sim.amdp_plan_action
AMDPPlanAction
p37
(dp38
g3
g4
(g5
g6
Ntp39
Rp40
(lp41
I1
aS'table'
p42
ag4
(g11
g6
Ntp43
Rp44
(lp45
F0.0
aF0.0
aF0.0
ababsg15
(dp46
g17
I00
sg18
I01
sg19
I01
sg20
I00
ssg21
I8
sg22
(dp47
g18
I00
sg19
I00
ssbS'1:table'
p48
s(itask_sim.amdp_plan_action
AMDPPlanAction
p49
(dp50
g3
g4
(g5
g6
Ntp51
Rp52
(lp53
I4
aS'l'
p54
ag4
(g11
g6
Ntp55
Rp56
(lp57
F0.0
aF0.0
aF0.0
ababsg15
(dp58
g17
I00
sg18
I01
sg19
I01
sg20
I00
ssg21
I8
sg22
(dp59
g19
I00
ssbS'4:l'
p60
s(itask_sim.amdp_plan_action
AMDPPlanAction
p61
(dp62
g3
g4
(g5
g6
Ntp63
Rp64
(lp65
I4
aS'lid'
p66
ag4
(g11
g6
Ntp67
Rp68
(lp69
F0.0
aF0.0
aF0.0
ababsg15
(dp70
g17
I01
sg18
I01
sg19
I00
sg20
I00
ssg21
I8
sg22
(dp71
g19
I01
ssbS'4:lid'
p72
s(itask_sim.amdp_plan_action
AMDPPlanAction
p73
(dp74
g3
g4
(g5
g6
Ntp75
Rp76
(lp77
I2
ag10
ag4
(g11
g6
Ntp78
Rp79
(lp80
F0.0
aF0.0
aF0.0
ababsg15
(dp81
g17
I01
sg18
I01
sg19
I00
sg20
I00
ssg21
I8
sg22
(dp82
g18
I00
sg19
I01
ssbS'2:'
p83
s(itask_sim.amdp_plan_action
AMDPPlanAction
p84
(dp85
g3
g4
(g5
g6
Ntp86
Rp87
(lp88
I4
aS'box'
p89
ag4
(g11
g6
Ntp90
Rp91
(lp92
F0.0
aF0.0
aF0.0
ababsg15
(dp93
g17
I01
sg18
I01
sg19
I00
sg20
I00
ssg21
I8
sg22
(dp94
sbS'4:box-f'
p95
s(itask_sim.amdp_plan_action
AMDPPlanAction
p96
(dp97
g3
g4
(g5
g6
Ntp98
Rp99
(lp100
I0
aS'lid'
p101
ag4
(g11
g6
Ntp102
Rp103
(lp104
F0.0
aF0.0
aF0.0
ababsg15
(dp105
g17
I00
sg18
I00
sg19
I01
sg20
I00
ssg21
I8
sg22
(dp106
g18
I01
ssbS'0:lid'
p107
s(itask_sim.amdp_plan_action
AMDPPlanAction
p108
(dp109
g3
g4
(g5
g6
Ntp110
Rp111
(lp112
I0
aS'apple'
p113
ag4
(g11
g6
Ntp114
Rp115
(lp116
F0.0
aF0.0
aF0.0
ababsg15
(dp117
g17
I00
sg18
I01
sg19
I00
sg20
I00
ssg21
I8
sg22
(dp118
g18
I00
ssbS'0:apple'
p119
s(itask_sim.amdp_plan_action
AMDPPlanAction
p120
(dp121
g3
g4
(g5
g6
Ntp122
Rp123
(lp124
I6
ag10
ag4
(g11
g6
Ntp125
Rp126
(lp127
F0.0
aF0.0
aF0.0
ababsg15
(dp128
g17
I00
sg18
I00
sg19
I00
sg20
I00
ssg21
I8
sg22
(dp129
sbS'6:-f'
p130
s(itask_sim.amdp_plan_action
AMDPPlanAction
p131
(dp132
g3
g4
(g5
g6
Ntp133
Rp134
(lp135
I0
aS'apple'
p136
ag4
(g11
g6
Ntp137
Rp138
(lp139
F0.0
aF0.0
aF0.0
ababsg15
(dp140
g17
I00
sg18
I00
sg19
I00
sg20
I00
ssg21
I8
sg22
(dp141
g20
I01
ssbS'0:apple'
p142
s(itask_sim.amdp_plan_action
AMDPPlanAction
p143
(dp144
g3
g4
(g5
g6
Ntp145
Rp146
(lp147
I5
ag10
ag4
(g11
g6
Ntp148
Rp149
(lp150
F0.0
aF0.0
aF0.0
ababsg15
(dp151
g17
I00
sg18
I00
sg19
I00
sg20
I01
ssg21
I8
sg22
(dp152
sbS'5:-f'
p153
s(itask_sim.amdp_plan_action
AMDPPlanAction
p154
(dp155
g3
g4
(g5
g6
Ntp156
Rp157
(lp158
I0
aS'lid'
p159
ag4
(g11
g6
Ntp160
Rp161
(lp162
F0.0
aF0.0
aF0.0
ababsg15
(dp163
g17
I01
sg18
I00
sg19
I00
sg20
I00
ssg21
I8
sg22
(dp164
g18
I01
ssbS'0:lid'
p165
s(itask_sim.amdp_plan_action
AMDPPlanAction
p166
(dp167
g3
g4
(g5
g6
Ntp168
Rp169
(lp170
I0
aS'apple'
p171
ag4
(g11
g6
Ntp172
Rp173
(lp174
F0.0
aF0.0
aF0.0
ababsg15
(dp175
g17
I00
sg18
I01
sg19
I00
sg20
I00
ssg21
I8
sg22
(dp176
g18
I00
sg20
I01
ssbS'0:apple'
p177
sS'start'
p178
g178
s(itask_sim.amdp_plan_action
AMDPPlanAction
p179
(dp180
g3
g4
(g5
g6
Ntp181
Rp182
(lp183
I0
aS'apple'
p184
ag4
(g11
g6
Ntp185
Rp186
(lp187
F0.0
aF0.0
aF0.0
ababsg15
(dp188
g17
I00
sg18
I00
sg19
I00
sg20
I00
ssg21
I8
sg22
(dp189
sbS'0:apple-f'
p190
s(itask_sim.amdp_plan_action
AMDPPlanAction
p191
(dp192
g3
g4
(g5
g6
Ntp193
Rp194
(lp195
I2
ag10
ag4
(g11
g6
Ntp196
Rp197
(lp198
F0.0
aF0.0
aF0.0
ababsg15
(dp199
g17
I00
sg18
I00
sg19
I00
sg20
I01
ssg21
I8
sg22
(dp200
g17
I01
sg20
I00
ssbS'2:'
p201
s(itask_sim.amdp_plan_action
AMDPPlanAction
p202
(dp203
g3
g4
(g5
g6
Ntp204
Rp205
(lp206
I2
ag10
ag4
(g11
g6
Ntp207
Rp208
(lp209
F0.0
aF0.0
aF0.0
ababsg15
(dp210
g17
I01
sg18
I01
sg19
I01
sg20
I00
ssg21
I8
sg22
(dp211
g18
I00
ssbS'2:'
p212
s(itask_sim.amdp_plan_action
AMDPPlanAction
p213
(dp214
g3
g4
(g5
g6
Ntp215
Rp216
(lp217
I4
aS'bl'
p218
ag4
(g11
g6
Ntp219
Rp220
(lp221
F0.0
aF0.0
aF0.0
ababsg15
(dp222
g17
I00
sg18
I01
sg19
I01
sg20
I00
ssg21
I8
sg22
(dp223
g19
I00
ssbS'4:bl'
p224
s(itask_sim.amdp_plan_action
AMDPPlanAction
p225
(dp226
g3
g4
(g5
g6
Ntp227
Rp228
(lp229
I4
aS'b'
p230
ag4
(g11
g6
Ntp231
Rp232
(lp233
F0.0
aF0.0
aF0.0
ababsg15
(dp234
g17
I00
sg18
I01
sg19
I01
sg20
I00
ssg21
I8
sg22
(dp235
g19
I00
ssbS'4:b'
p236
s(itask_sim.amdp_plan_action
AMDPPlanAction
p237
(dp238
g3
g4
(g5
g6
Ntp239
Rp240
(lp241
I4
aS'fr'
p242
ag4
(g11
g6
Ntp243
Rp244
(lp245
F0.0
aF0.0
aF0.0
ababsg15
(dp246
g17
I00
sg18
I00
sg19
I00
sg20
I00
ssg21
I8
sg22
(dp247
sbS'4:fr-f'
p248
s(itask_sim.amdp_plan_action
AMDPPlanAction
p249
(dp250
g3
g4
(g5
g6
Ntp251
Rp252
(lp253
I4
ag89
ag4
(g11
g6
Ntp254
Rp255
(lp256
F0.0
aF0.0
aF0.0
ababsg15
(dp257
g17
I01
sg18
I01
sg19
I00
sg20
I00
ssg21
I8
sg22
(dp258
g19
I01
ssbS'4:box'
p259
s(itask_sim.amdp_plan_action
AMDPPlanAction
p260
(dp261
g3
g4
(g5
g6
Ntp262
Rp263
(lp264
I4
aS'r'
p265
ag4
(g11
g6
Ntp266
Rp267
(lp268
F0.0
aF0.0
aF0.0
ababsg15
(dp269
g17
I00
sg18
I01
sg19
I01
sg20
I00
ssg21
I8
sg22
(dp270
g19
I00
ssbS'4:r'
p271
s(itask_sim.amdp_plan_action
AMDPPlanAction
p272
(dp273
g3
g4
(g5
g6
Ntp274
Rp275
(lp276
I4
aS'br'
p277
ag4
(g11
g6
Ntp278
Rp279
(lp280
F0.0
aF0.0
aF0.0
ababsg15
(dp281
g17
I00
sg18
I01
sg19
I01
sg20
I00
ssg21
I8
sg22
(dp282
g19
I00
ssbS'4:br'
p283
s(itask_sim.amdp_plan_action
AMDPPlanAction
p284
(dp285
g3
g4
(g5
g6
Ntp286
Rp287
(lp288
I4
aS'f'
p289
ag4
(g11
g6
Ntp290
Rp291
(lp292
F0.0
aF0.0
aF0.0
ababsg15
(dp293
g17
I00
sg18
I01
sg19
I01
sg20
I00
ssg21
I8
sg22
(dp294
g19
I00
ssbS'4:f'
p295
s(itask_sim.amdp_plan_action
AMDPPlanAction
p296
(dp297
g3
g4
(g5
g6
Ntp298
Rp299
(lp300
I1
ag89
ag4
(g11
g6
Ntp301
Rp302
(lp303
F0.0
aF0.0
aF0.0
ababsg15
(dp304
g17
I01
sg18
I01
sg19
I00
sg20
I00
ssg21
I8
sg22
(dp305
sbS'1:box-f'
p306
s(itask_sim.amdp_plan_action
AMDPPlanAction
p307
(dp308
g3
g4
(g5
g6
Ntp309
Rp310
(lp311
I1
ag89
ag4
(g11
g6
Ntp312
Rp313
(lp314
F0.0
aF0.0
aF0.0
ababsg15
(dp315
g17
I00
sg18
I00
sg19
I00
sg20
I01
ssg21
I8
sg22
(dp316
g17
I01
sg20
I00
ssbS'1:box'
p317
s(itask_sim.amdp_plan_action
AMDPPlanAction
p318
(dp319
g3
g4
(g5
g6
Ntp320
Rp321
(lp322
I4
ag89
ag4
(g11
g6
Ntp323
Rp324
(lp325
F0.0
aF0.0
aF0.0
ababsg15
(dp326
g17
I00
sg18
I00
sg19
I00
sg20
I01
ssg21
I8
sg22
(dp327
sbS'4:box-f'
p328
s(itask_sim.amdp_plan_action
AMDPPlanAction
p329
(dp330
g3
g4
(g5
g6
Ntp331
Rp332
(lp333
I0
aS'lid'
p334
ag4
(g11
g6
Ntp335
Rp336
(lp337
F0.0
aF0.0
aF0.0
ababsg15
(dp338
g17
I01
sg18
I00
sg19
I00
sg20
I00
ssg21
I8
sg22
(dp339
sbS'0:lid-f'
p340
s(itask_sim.amdp_plan_action
AMDPPlanAction
p341
(dp342
g3
g4
(g5
g6
Ntp343
Rp344
(lp345
I2
ag10
ag4
(g11
g6
Ntp346
Rp347
(lp348
F0.0
aF0.0
aF0.0
ababsg15
(dp349
g17
I00
sg18
I01
sg19
I00
sg20
I00
ssg21
I8
sg22
(dp350
g18
I00
ssbS'2:'
p351
s(itask_sim.amdp_plan_action
AMDPPlanAction
p352
(dp353
g3
g4
(g5
g6
Ntp354
Rp355
(lp356
I5
ag10
ag4
(g11
g6
Ntp357
Rp358
(lp359
F0.0
aF0.0
aF0.0
ababsg15
(dp360
g17
I00
sg18
I00
sg19
I00
sg20
I00
ssg21
I8
sg22
(dp361
sbS'5:-f'
p362
s(itask_sim.amdp_plan_action
AMDPPlanAction
p363
(dp364
g3
g4
(g5
g6
Ntp365
Rp366
(lp367
I2
ag10
ag4
(g11
g6
Ntp368
Rp369
(lp370
F0.0
aF0.0
aF0.0
ababsg15
(dp371
g17
I01
sg18
I00
sg19
I01
sg20
I00
ssg21
I8
sg22
(dp372
sbS'2:-f'
p373
s(itask_sim.amdp_plan_action
AMDPPlanAction
p374
(dp375
g3
g4
(g5
g6
Ntp376
Rp377
(lp378
I4
ag66
ag4
(g11
g6
Ntp379
Rp380
(lp381
F0.0
aF0.0
aF0.0
ababsg15
(dp382
g17
I00
sg18
I01
sg19
I01
sg20
I00
ssg21
I8
sg22
(dp383
g19
I00
ssbS'4:lid'
p384
s(itask_sim.amdp_plan_action
AMDPPlanAction
p385
(dp386
g3
g4
(g5
g6
Ntp387
Rp388
(lp389
I5
ag10
ag4
(g11
g6
Ntp390
Rp391
(lp392
F0.0
aF0.0
aF0.0
ababsg15
(dp393
g17
I01
sg18
I00
sg19
I00
sg20
I00
ssg21
I8
sg22
(dp394
sbS'5:-f'
p395
s(itask_sim.amdp_plan_action
AMDPPlanAction
p396
(dp397
g3
g4
(g5
g6
Ntp398
Rp399
(lp400
I3
ag10
ag4
(g11
g6
Ntp401
Rp402
(lp403
F0.0
aF0.0
aF0.0
ababsg15
(dp404
g17
I00
sg18
I00
sg19
I00
sg20
I00
ssg21
I8
sg22
(dp405
g20
I01
ssbS'3:'
p406
s(itask_sim.amdp_plan_action
AMDPPlanAction
p407
(dp408
g3
g4
(g5
g6
Ntp409
Rp410
(lp411
I5
ag10
ag4
(g11
g6
Ntp412
Rp413
(lp414
F0.0
aF0.0
aF0.0
ababsg15
(dp415
g17
I01
sg18
I01
sg19
I00
sg20
I00
ssg21
I8
sg22
(dp416
sbS'5:-f'
p417
s(itask_sim.amdp_plan_action
AMDPPlanAction
p418
(dp419
g3
g4
(g5
g6
Ntp420
Rp421
(lp422
I1
ag89
ag4
(g11
g6
Ntp423
Rp424
(lp425
F0.0
aF0.0
aF0.0
ababsg15
(dp426
g17
I01
sg18
I01
sg19
I00
sg20
I00
ssg21
I8
sg22
(dp427
g18
I00
sg19
I01
ssbS'1:box'
p428
s.