(dp0
(itask_sim.amdp_plan_action
AMDPPlanAction
p1
(dp2
S'action_object'
p3
S'bl'
p4
sS'preconditions'
p5
(dp6
S'gripper_holding_lid'
p7
I01
sS'lid_closing_box'
p8
I01
ssS'amdp_id'
p9
I6
sS'action_type'
p10
I4
sS'effects'
p11
(dp12
g8
I00
ssbS'4:bl'
p13
s(itask_sim.amdp_plan_action
AMDPPlanAction
p14
(dp15
g3
S'l'
p16
sg5
(dp17
g7
I01
sg8
I01
ssg9
I6
sg10
I4
sg11
(dp18
g8
I00
ssbS'4:l'
p19
s(itask_sim.amdp_plan_action
AMDPPlanAction
p20
(dp21
g3
S'fl'
p22
sg5
(dp23
g7
I01
sg8
I01
ssg9
I6
sg10
I4
sg11
(dp24
g8
I00
ssbS'4:fl'
p25
s(itask_sim.amdp_plan_action
AMDPPlanAction
p26
(dp27
g3
S'lid'
p28
sg5
(dp29
g7
I00
sg8
I01
ssg9
I6
sg10
I0
sg11
(dp30
g7
I01
ssbS'0:lid'
p31
s(itask_sim.amdp_plan_action
AMDPPlanAction
p32
(dp33
g3
S'r'
p34
sg5
(dp35
g7
I01
sg8
I01
ssg9
I6
sg10
I4
sg11
(dp36
g8
I00
ssbS'4:r'
p37
s(itask_sim.amdp_plan_action
AMDPPlanAction
p38
(dp39
g3
S''
p40
sg5
(dp41
g7
I00
sg8
I00
ssg9
I6
sg10
I3
sg11
(dp42
sbS'3:-f'
p43
s(itask_sim.amdp_plan_action
AMDPPlanAction
p44
(dp45
g3
S'lid'
p46
sg5
(dp47
g7
I00
sg8
I00
ssg9
I6
sg10
I0
sg11
(dp48
g7
I01
ssbS'0:lid'
p49
s(itask_sim.amdp_plan_action
AMDPPlanAction
p50
(dp51
g3
g40
sg5
(dp52
g7
I01
sg8
I01
ssg9
I6
sg10
I2
sg11
(dp53
g7
I00
ssbS'2:'
p54
s(itask_sim.amdp_plan_action
AMDPPlanAction
p55
(dp56
g3
g40
sg5
(dp57
g7
I01
sg8
I00
ssg9
I6
sg10
I5
sg11
(dp58
sbS'5:-f'
p59
s(itask_sim.amdp_plan_action
AMDPPlanAction
p60
(dp61
g3
S'box'
p62
sg5
(dp63
g7
I01
sg8
I00
ssg9
I6
sg10
I4
sg11
(dp64
sbS'4:box-f'
p65
s(itask_sim.amdp_plan_action
AMDPPlanAction
p66
(dp67
g3
g40
sg5
(dp68
g7
I01
sg8
I00
ssg9
I6
sg10
I2
sg11
(dp69
g7
I00
sg8
I01
ssbS'2:'
p70
s(itask_sim.amdp_plan_action
AMDPPlanAction
p71
(dp72
g3
S'apple'
p73
sg5
(dp74
g7
I01
sg8
I00
ssg9
I6
sg10
I0
sg11
(dp75
g7
I00
ssbS'0:apple'
p76
s(itask_sim.amdp_plan_action
AMDPPlanAction
p77
(dp78
g3
S'lid'
p79
sg5
(dp80
g7
I00
sg8
I00
ssg9
I6
sg10
I0
sg11
(dp81
sbS'0:lid-f'
p82
s(itask_sim.amdp_plan_action
AMDPPlanAction
p83
(dp84
g3
S'lid'
p85
sg5
(dp86
g7
I01
sg8
I00
ssg9
I6
sg10
I4
sg11
(dp87
g8
I01
ssbS'4:lid'
p88
s(itask_sim.amdp_plan_action
AMDPPlanAction
p89
(dp90
g3
g62
sg5
(dp91
g7
I00
sg8
I00
ssg9
I6
sg10
I1
sg11
(dp92
sbS'1:box-f'
p93
sS'start'
p94
g94
s(itask_sim.amdp_plan_action
AMDPPlanAction
p95
(dp96
g3
g40
sg5
(dp97
g7
I00
sg8
I00
ssg9
I6
sg10
I7
sg11
(dp98
sbS'7:-f'
p99
s(itask_sim.amdp_plan_action
AMDPPlanAction
p100
(dp101
g3
S'table'
p102
sg5
(dp103
g7
I01
sg8
I01
ssg9
I6
sg10
I1
sg11
(dp104
g7
I00
sg8
I00
ssbS'1:table'
p105
s(itask_sim.amdp_plan_action
AMDPPlanAction
p106
(dp107
g3
S'fr'
p108
sg5
(dp109
g7
I00
sg8
I00
ssg9
I6
sg10
I4
sg11
(dp110
sbS'4:fr-f'
p111
s(itask_sim.amdp_plan_action
AMDPPlanAction
p112
(dp113
g3
g40
sg5
(dp114
g7
I00
sg8
I00
ssg9
I6
sg10
I6
sg11
(dp115
sbS'6:-f'
p116
s(itask_sim.amdp_plan_action
AMDPPlanAction
p117
(dp118
g3
g62
sg5
(dp119
g7
I00
sg8
I00
ssg9
I6
sg10
I4
sg11
(dp120
sbS'4:box-f'
p121
s(itask_sim.amdp_plan_action
AMDPPlanAction
p122
(dp123
g3
g40
sg5
(dp124
g7
I01
sg8
I00
ssg9
I6
sg10
I2
sg11
(dp125
g7
I00
ssbS'2:'
p126
s(itask_sim.amdp_plan_action
AMDPPlanAction
p127
(dp128
g3
S'f'
p129
sg5
(dp130
g7
I01
sg8
I01
ssg9
I6
sg10
I4
sg11
(dp131
g8
I00
ssbS'4:f'
p132
s(itask_sim.amdp_plan_action
AMDPPlanAction
p133
(dp134
g3
S'br'
p135
sg5
(dp136
g7
I01
sg8
I01
ssg9
I6
sg10
I4
sg11
(dp137
g8
I00
ssbS'4:br'
p138
s(itask_sim.amdp_plan_action
AMDPPlanAction
p139
(dp140
g3
S'b'
p141
sg5
(dp142
g7
I01
sg8
I01
ssg9
I6
sg10
I4
sg11
(dp143
g8
I00
ssbS'4:b'
p144
s(itask_sim.amdp_plan_action
AMDPPlanAction
p145
(dp146
g3
g62
sg5
(dp147
g7
I01
sg8
I00
ssg9
I6
sg10
I1
sg11
(dp148
g7
I00
sg8
I01
ssbS'1:box'
p149
s(itask_sim.amdp_plan_action
AMDPPlanAction
p150
(dp151
g3
g40
sg5
(dp152
g7
I00
sg8
I00
ssg9
I6
sg10
I5
sg11
(dp153
sbS'5:-f'
p154
s(itask_sim.amdp_plan_action
AMDPPlanAction
p155
(dp156
g3
g62
sg5
(dp157
g7
I01
sg8
I00
ssg9
I6
sg10
I4
sg11
(dp158
g8
I01
ssbS'4:box'
p159
s(itask_sim.amdp_plan_action
AMDPPlanAction
p160
(dp161
g3
S'apple'
p162
sg5
(dp163
g7
I00
sg8
I00
ssg9
I6
sg10
I0
sg11
(dp164
sbS'0:apple-f'
p165
s(itask_sim.amdp_plan_action
AMDPPlanAction
p166
(dp167
g3
g40
sg5
(dp168
g7
I00
sg8
I01
ssg9
I6
sg10
I2
sg11
(dp169
sbS'2:-f'
p170
s(itask_sim.amdp_plan_action
AMDPPlanAction
p171
(dp172
g3
g40
sg5
(dp173
g7
I00
sg8
I00
ssg9
I6
sg10
I2
sg11
(dp174
sbS'2:-f'
p175
s(itask_sim.amdp_plan_action
AMDPPlanAction
p176
(dp177
g3
g85
sg5
(dp178
g7
I01
sg8
I01
ssg9
I6
sg10
I4
sg11
(dp179
g8
I00
ssbS'4:lid'
p180
s(itask_sim.amdp_plan_action
AMDPPlanAction
p181
(dp182
g3
g62
sg5
(dp183
g7
I01
sg8
I00
ssg9
I6
sg10
I1
sg11
(dp184
sbS'1:box-f'
p185
s.