(dp0
(itask_sim.amdp_plan_action
AMDPPlanAction
p1
(dp2
S'action'
p3
ccopy_reg
_reconstructor
p4
(ctmpIWgWS4
_task_sim__Action
p5
c__builtin__
object
p6
Ntp7
Rp8
(lp9
I4
aS'bl'
p10
ag4
(cgeometry_msgs.msg._Point
Point
p11
g6
Ntp12
Rp13
(lp14
F0.0
aF0.0
aF0.0
ababsS'preconditions'
p15
(dp16
S'gripper_holding_lid'
p17
I01
sS'lid_closing_box'
p18
I01
ssS'amdp_id'
p19
I6
sS'effects'
p20
(dp21
g18
I00
ssbS'4:bl'
p22
s(itask_sim.amdp_plan_action
AMDPPlanAction
p23
(dp24
g3
g4
(g5
g6
Ntp25
Rp26
(lp27
I4
aS'l'
p28
ag4
(g11
g6
Ntp29
Rp30
(lp31
F0.0
aF0.0
aF0.0
ababsg15
(dp32
g17
I01
sg18
I01
ssg19
I6
sg20
(dp33
g18
I00
ssbS'4:l'
p34
s(itask_sim.amdp_plan_action
AMDPPlanAction
p35
(dp36
g3
g4
(g5
g6
Ntp37
Rp38
(lp39
I4
aS'fl'
p40
ag4
(g11
g6
Ntp41
Rp42
(lp43
F0.0
aF0.0
aF0.0
ababsg15
(dp44
g17
I01
sg18
I01
ssg19
I6
sg20
(dp45
g18
I00
ssbS'4:fl'
p46
s(itask_sim.amdp_plan_action
AMDPPlanAction
p47
(dp48
g3
g4
(g5
g6
Ntp49
Rp50
(lp51
I0
aS'lid'
p52
ag4
(g11
g6
Ntp53
Rp54
(lp55
F0.0
aF0.0
aF0.0
ababsg15
(dp56
g17
I00
sg18
I01
ssg19
I6
sg20
(dp57
g17
I01
ssbS'0:lid'
p58
s(itask_sim.amdp_plan_action
AMDPPlanAction
p59
(dp60
g3
g4
(g5
g6
Ntp61
Rp62
(lp63
I4
aS'r'
p64
ag4
(g11
g6
Ntp65
Rp66
(lp67
F0.0
aF0.0
aF0.0
ababsg15
(dp68
g17
I01
sg18
I01
ssg19
I6
sg20
(dp69
g18
I00
ssbS'4:r'
p70
s(itask_sim.amdp_plan_action
AMDPPlanAction
p71
(dp72
g3
g4
(g5
g6
Ntp73
Rp74
(lp75
I3
aS''
p76
ag4
(g11
g6
Ntp77
Rp78
(lp79
F0.0
aF0.0
aF0.0
ababsg15
(dp80
g17
I00
sg18
I00
ssg19
I6
sg20
(dp81
sbS'3:-f'
p82
s(itask_sim.amdp_plan_action
AMDPPlanAction
p83
(dp84
g3
g4
(g5
g6
Ntp85
Rp86
(lp87
I0
aS'lid'
p88
ag4
(g11
g6
Ntp89
Rp90
(lp91
F0.0
aF0.0
aF0.0
ababsg15
(dp92
g17
I00
sg18
I00
ssg19
I6
sg20
(dp93
g17
I01
ssbS'0:lid'
p94
s(itask_sim.amdp_plan_action
AMDPPlanAction
p95
(dp96
g3
g4
(g5
g6
Ntp97
Rp98
(lp99
I2
ag76
ag4
(g11
g6
Ntp100
Rp101
(lp102
F0.0
aF0.0
aF0.0
ababsg15
(dp103
g17
I01
sg18
I01
ssg19
I6
sg20
(dp104
g17
I00
ssbS'2:'
p105
s(itask_sim.amdp_plan_action
AMDPPlanAction
p106
(dp107
g3
g4
(g5
g6
Ntp108
Rp109
(lp110
I5
ag76
ag4
(g11
g6
Ntp111
Rp112
(lp113
F0.0
aF0.0
aF0.0
ababsg15
(dp114
g17
I01
sg18
I00
ssg19
I6
sg20
(dp115
sbS'5:-f'
p116
s(itask_sim.amdp_plan_action
AMDPPlanAction
p117
(dp118
g3
g4
(g5
g6
Ntp119
Rp120
(lp121
I4
aS'box'
p122
ag4
(g11
g6
Ntp123
Rp124
(lp125
F0.0
aF0.0
aF0.0
ababsg15
(dp126
g17
I01
sg18
I00
ssg19
I6
sg20
(dp127
sbS'4:box-f'
p128
s(itask_sim.amdp_plan_action
AMDPPlanAction
p129
(dp130
g3
g4
(g5
g6
Ntp131
Rp132
(lp133
I2
ag76
ag4
(g11
g6
Ntp134
Rp135
(lp136
F0.0
aF0.0
aF0.0
ababsg15
(dp137
g17
I01
sg18
I00
ssg19
I6
sg20
(dp138
g17
I00
sg18
I01
ssbS'2:'
p139
s(itask_sim.amdp_plan_action
AMDPPlanAction
p140
(dp141
g3
g4
(g5
g6
Ntp142
Rp143
(lp144
I0
aS'apple'
p145
ag4
(g11
g6
Ntp146
Rp147
(lp148
F0.0
aF0.0
aF0.0
ababsg15
(dp149
g17
I01
sg18
I00
ssg19
I6
sg20
(dp150
g17
I00
ssbS'0:apple'
p151
s(itask_sim.amdp_plan_action
AMDPPlanAction
p152
(dp153
g3
g4
(g5
g6
Ntp154
Rp155
(lp156
I0
aS'lid'
p157
ag4
(g11
g6
Ntp158
Rp159
(lp160
F0.0
aF0.0
aF0.0
ababsg15
(dp161
g17
I00
sg18
I00
ssg19
I6
sg20
(dp162
sbS'0:lid-f'
p163
s(itask_sim.amdp_plan_action
AMDPPlanAction
p164
(dp165
g3
g4
(g5
g6
Ntp166
Rp167
(lp168
I4
aS'lid'
p169
ag4
(g11
g6
Ntp170
Rp171
(lp172
F0.0
aF0.0
aF0.0
ababsg15
(dp173
g17
I01
sg18
I00
ssg19
I6
sg20
(dp174
g18
I01
ssbS'4:lid'
p175
s(itask_sim.amdp_plan_action
AMDPPlanAction
p176
(dp177
g3
g4
(g5
g6
Ntp178
Rp179
(lp180
I1
ag122
ag4
(g11
g6
Ntp181
Rp182
(lp183
F0.0
aF0.0
aF0.0
ababsg15
(dp184
g17
I00
sg18
I00
ssg19
I6
sg20
(dp185
sbS'1:box-f'
p186
sS'start'
p187
g187
s(itask_sim.amdp_plan_action
AMDPPlanAction
p188
(dp189
g3
g4
(g5
g6
Ntp190
Rp191
(lp192
I7
ag76
ag4
(g11
g6
Ntp193
Rp194
(lp195
F0.0
aF0.0
aF0.0
ababsg15
(dp196
g17
I00
sg18
I00
ssg19
I6
sg20
(dp197
sbS'7:-f'
p198
s(itask_sim.amdp_plan_action
AMDPPlanAction
p199
(dp200
g3
g4
(g5
g6
Ntp201
Rp202
(lp203
I1
aS'table'
p204
ag4
(g11
g6
Ntp205
Rp206
(lp207
F0.0
aF0.0
aF0.0
ababsg15
(dp208
g17
I01
sg18
I01
ssg19
I6
sg20
(dp209
g17
I00
sg18
I00
ssbS'1:table'
p210
s(itask_sim.amdp_plan_action
AMDPPlanAction
p211
(dp212
g3
g4
(g5
g6
Ntp213
Rp214
(lp215
I4
aS'fr'
p216
ag4
(g11
g6
Ntp217
Rp218
(lp219
F0.0
aF0.0
aF0.0
ababsg15
(dp220
g17
I00
sg18
I00
ssg19
I6
sg20
(dp221
sbS'4:fr-f'
p222
s(itask_sim.amdp_plan_action
AMDPPlanAction
p223
(dp224
g3
g4
(g5
g6
Ntp225
Rp226
(lp227
I6
ag76
ag4
(g11
g6
Ntp228
Rp229
(lp230
F0.0
aF0.0
aF0.0
ababsg15
(dp231
g17
I00
sg18
I00
ssg19
I6
sg20
(dp232
sbS'6:-f'
p233
s(itask_sim.amdp_plan_action
AMDPPlanAction
p234
(dp235
g3
g4
(g5
g6
Ntp236
Rp237
(lp238
I4
ag122
ag4
(g11
g6
Ntp239
Rp240
(lp241
F0.0
aF0.0
aF0.0
ababsg15
(dp242
g17
I00
sg18
I00
ssg19
I6
sg20
(dp243
sbS'4:box-f'
p244
s(itask_sim.amdp_plan_action
AMDPPlanAction
p245
(dp246
g3
g4
(g5
g6
Ntp247
Rp248
(lp249
I2
ag76
ag4
(g11
g6
Ntp250
Rp251
(lp252
F0.0
aF0.0
aF0.0
ababsg15
(dp253
g17
I01
sg18
I00
ssg19
I6
sg20
(dp254
g17
I00
ssbS'2:'
p255
s(itask_sim.amdp_plan_action
AMDPPlanAction
p256
(dp257
g3
g4
(g5
g6
Ntp258
Rp259
(lp260
I4
aS'f'
p261
ag4
(g11
g6
Ntp262
Rp263
(lp264
F0.0
aF0.0
aF0.0
ababsg15
(dp265
g17
I01
sg18
I01
ssg19
I6
sg20
(dp266
g18
I00
ssbS'4:f'
p267
s(itask_sim.amdp_plan_action
AMDPPlanAction
p268
(dp269
g3
g4
(g5
g6
Ntp270
Rp271
(lp272
I4
aS'br'
p273
ag4
(g11
g6
Ntp274
Rp275
(lp276
F0.0
aF0.0
aF0.0
ababsg15
(dp277
g17
I01
sg18
I01
ssg19
I6
sg20
(dp278
g18
I00
ssbS'4:br'
p279
s(itask_sim.amdp_plan_action
AMDPPlanAction
p280
(dp281
g3
g4
(g5
g6
Ntp282
Rp283
(lp284
I4
aS'b'
p285
ag4
(g11
g6
Ntp286
Rp287
(lp288
F0.0
aF0.0
aF0.0
ababsg15
(dp289
g17
I01
sg18
I01
ssg19
I6
sg20
(dp290
g18
I00
ssbS'4:b'
p291
s(itask_sim.amdp_plan_action
AMDPPlanAction
p292
(dp293
g3
g4
(g5
g6
Ntp294
Rp295
(lp296
I1
ag122
ag4
(g11
g6
Ntp297
Rp298
(lp299
F0.0
aF0.0
aF0.0
ababsg15
(dp300
g17
I01
sg18
I00
ssg19
I6
sg20
(dp301
g17
I00
sg18
I01
ssbS'1:box'
p302
s(itask_sim.amdp_plan_action
AMDPPlanAction
p303
(dp304
g3
g4
(g5
g6
Ntp305
Rp306
(lp307
I5
ag76
ag4
(g11
g6
Ntp308
Rp309
(lp310
F0.0
aF0.0
aF0.0
ababsg15
(dp311
g17
I00
sg18
I00
ssg19
I6
sg20
(dp312
sbS'5:-f'
p313
s(itask_sim.amdp_plan_action
AMDPPlanAction
p314
(dp315
g3
g4
(g5
g6
Ntp316
Rp317
(lp318
I4
ag122
ag4
(g11
g6
Ntp319
Rp320
(lp321
F0.0
aF0.0
aF0.0
ababsg15
(dp322
g17
I01
sg18
I00
ssg19
I6
sg20
(dp323
g18
I01
ssbS'4:box'
p324
s(itask_sim.amdp_plan_action
AMDPPlanAction
p325
(dp326
g3
g4
(g5
g6
Ntp327
Rp328
(lp329
I0
aS'apple'
p330
ag4
(g11
g6
Ntp331
Rp332
(lp333
F0.0
aF0.0
aF0.0
ababsg15
(dp334
g17
I00
sg18
I00
ssg19
I6
sg20
(dp335
sbS'0:apple-f'
p336
s(itask_sim.amdp_plan_action
AMDPPlanAction
p337
(dp338
g3
g4
(g5
g6
Ntp339
Rp340
(lp341
I2
ag76
ag4
(g11
g6
Ntp342
Rp343
(lp344
F0.0
aF0.0
aF0.0
ababsg15
(dp345
g17
I00
sg18
I01
ssg19
I6
sg20
(dp346
sbS'2:-f'
p347
s(itask_sim.amdp_plan_action
AMDPPlanAction
p348
(dp349
g3
g4
(g5
g6
Ntp350
Rp351
(lp352
I2
ag76
ag4
(g11
g6
Ntp353
Rp354
(lp355
F0.0
aF0.0
aF0.0
ababsg15
(dp356
g17
I00
sg18
I00
ssg19
I6
sg20
(dp357
sbS'2:-f'
p358
s(itask_sim.amdp_plan_action
AMDPPlanAction
p359
(dp360
g3
g4
(g5
g6
Ntp361
Rp362
(lp363
I4
ag169
ag4
(g11
g6
Ntp364
Rp365
(lp366
F0.0
aF0.0
aF0.0
ababsg15
(dp367
g17
I01
sg18
I01
ssg19
I6
sg20
(dp368
g18
I00
ssbS'4:lid'
p369
s(itask_sim.amdp_plan_action
AMDPPlanAction
p370
(dp371
g3
g4
(g5
g6
Ntp372
Rp373
(lp374
I1
ag122
ag4
(g11
g6
Ntp375
Rp376
(lp377
F0.0
aF0.0
aF0.0
ababsg15
(dp378
g17
I01
sg18
I00
ssg19
I6
sg20
(dp379
sbS'1:box-f'
p380
s.