(dp0
S'start'
p1
g1
s(iplan_action
PlanAction
p2
(dp3
S'target'
p4
NsS'object_in_box'
p5
I00
sS'object_in_gripper'
p6
S'cluster0'
p7
sS'object'
p8
g7
sS'target_open'
p9
I01
sS'gripper_open'
p10
I00
sS'object_on_lid'
p11
I00
sS'effects'
p12
(dp13
g6
(lp14
S''
p15
asS'change_gripper'
p16
(lp17
S'open'
p18
assS'action'
p19
I2
sS'object_open'
p20
I00
sS'object_in_drawer'
p21
I00
sbS'2-cluster0-None'
p22
s(iplan_action
PlanAction
p23
(dp24
g4
Nsg5
I00
sg6
g15
sg8
g7
sg9
I01
sg10
I01
sg11
I00
sg12
(dp25
sg19
I0
sg20
I00
sg21
I00
sbS'0-cluster0-None-f'
p26
s(iplan_action
PlanAction
p27
(dp28
g4
Nsg5
I00
sg6
g15
sg8
g7
sg9
I01
sg10
I01
sg11
I00
sg12
(dp29
g6
(lp30
g7
asg16
(lp31
S'closed'
p32
assg19
I0
sg20
I00
sg21
I00
sbS'0-cluster0-None'
p33
s.