(dp0
S'lid'
p1
(lp2
S'lid'
p3
asS''
p4
(lp5
g4
asN(lp6
g4
asS'granola'
p7
(lp8
S'granola'
p9
asS'cluster0'
p10
(lp11
S'flashlight'
p12
aS'batteries'
p13
aS'apple'
p14
asS'stack'
p15
(lp16
S'stack'
p17
as.