(dp0
(iplan_action
PlanAction
p1
(dp2
S'target'
p3
S'lid'
p4
sS'object_in_box'
p5
I00
sS'object_in_gripper'
p6
S'cluster0'
p7
sS'object'
p8
g7
sS'target_open'
p9
I00
sS'gripper_open'
p10
I00
sS'object_on_lid'
p11
I00
sS'effects'
p12
(dp13
sS'action'
p14
I1
sS'object_open'
p15
I00
sS'object_in_drawer'
p16
I00
sbS'1-cluster0-lid-f'
p17
s(iplan_action
PlanAction
p18
(dp19
g3
Nsg5
I00
sg6
S''
p20
sg8
S'granola'
p21
sg9
I01
sg10
I01
sg11
I00
sg12
(dp22
sg14
I0
sg15
I00
sg16
I00
sbS'0-granola-None-f'
p23
s(iplan_action
PlanAction
p24
(dp25
g3
Nsg5
I00
sg6
g20
sg8
g7
sg9
I01
sg10
I01
sg11
I00
sg12
(dp26
g6
(lp27
g7
asS'change_gripper'
p28
(lp29
S'closed'
p30
assg14
I0
sg15
I00
sg16
I00
sbS'0-cluster0-None'
p31
s(iplan_action
PlanAction
p32
(dp33
g3
Nsg5
I00
sg6
g20
sg8
Nsg9
I01
sg10
I01
sg11
I00
sg12
(dp34
sg14
I5
sg15
I00
sg16
I00
sbS'5-None-None-f'
p35
s(iplan_action
PlanAction
p36
(dp37
g3
Nsg5
I00
sg6
g7
sg8
g7
sg9
I01
sg10
I00
sg11
I00
sg12
(dp38
S'moved'
p39
(lp40
g7
assg14
I5
sg15
I00
sg16
I00
sbS'5-cluster0-None'
p41
s(iplan_action
PlanAction
p42
(dp43
g3
g4
sg5
I00
sg6
g7
sg8
g7
sg9
I00
sg10
I00
sg11
I00
sg12
(dp44
g6
(lp45
g20
asg28
(lp46
S'open'
p47
asS'on_lid'
p48
(lp49
g7
assg14
I1
sg15
I00
sg16
I00
sbS'1-cluster0-lid'
p50
sS'start'
p51
g51
s(iplan_action
PlanAction
p52
(dp53
g3
Nsg5
I00
sg6
g20
sg8
g21
sg9
I01
sg10
I01
sg11
I00
sg12
(dp54
g6
(lp55
g21
asg28
(lp56
S'closed'
p57
assg14
I0
sg15
I00
sg16
I00
sbS'0-granola-None'
p58
s(iplan_action
PlanAction
p59
(dp60
g3
S'stack'
p61
sg5
I00
sg6
g21
sg8
g21
sg9
I01
sg10
I00
sg11
I00
sg12
(dp62
g6
(lp63
g20
asg28
(lp64
S'open'
p65
asg39
(lp66
g21
assg14
I1
sg15
I00
sg16
I00
sbS'1-granola-stack'
p67
s.