(dp0
(iplan_action
PlanAction
p1
(dp2
S'target'
p3
S'cluster1'
p4
sS'object_in_box'
p5
I00
sS'object_in_gripper'
p6
S'cluster0'
p7
sS'object'
p8
g7
sS'target_open'
p9
I01
sS'gripper_open'
p10
I00
sS'object_on_lid'
p11
I00
sS'effects'
p12
(dp13
g6
(lp14
S''
p15
asS'change_gripper'
p16
(lp17
S'open'
p18
asS'moved'
p19
(lp20
g7
assS'action'
p21
I1
sS'object_open'
p22
I00
sS'object_in_drawer'
p23
I00
sbS'1-cluster0-cluster1'
p24
s(iplan_action
PlanAction
p25
(dp26
g3
Nsg5
I00
sg6
g15
sg8
g7
sg9
I01
sg10
I01
sg11
I00
sg12
(dp27
sg21
I0
sg22
I00
sg23
I00
sbS'0-cluster0-None-f'
p28
s(iplan_action
PlanAction
p29
(dp30
g3
g4
sg5
I00
sg6
g7
sg8
g7
sg9
I01
sg10
I00
sg11
I00
sg12
(dp31
sg21
I1
sg22
I00
sg23
I00
sbS'1-cluster0-cluster1-f'
p32
s(iplan_action
PlanAction
p33
(dp34
g3
Nsg5
I00
sg6
g15
sg8
Nsg9
I01
sg10
I01
sg11
I00
sg12
(dp35
sg21
I5
sg22
I00
sg23
I00
sbS'5-None-None-f'
p36
s(iplan_action
PlanAction
p37
(dp38
g3
Nsg5
I00
sg6
g7
sg8
g7
sg9
I01
sg10
I00
sg11
I00
sg12
(dp39
g19
(lp40
g7
assg21
I5
sg22
I00
sg23
I00
sbS'5-cluster0-None'
p41
sS'start'
p42
g42
s(iplan_action
PlanAction
p43
(dp44
g3
g4
sg5
I00
sg6
g7
sg8
g7
sg9
I01
sg10
I00
sg11
I00
sg12
(dp45
g6
(lp46
g15
asg16
(lp47
S'open'
p48
asS'on_lid'
p49
(lp50
g7
assg21
I1
sg22
I00
sg23
I00
sbS'1-cluster0-cluster1'
p51
s(iplan_action
PlanAction
p52
(dp53
g3
Nsg5
I00
sg6
g15
sg8
g7
sg9
I01
sg10
I01
sg11
I00
sg12
(dp54
g6
(lp55
g7
asg16
(lp56
S'closed'
p57
assg21
I0
sg22
I00
sg23
I00
sbS'0-cluster0-None'
p58
s.