(lp0
(itask_sim.amdp_plan_action
AMDPPlanAction
p1
(dp2
S'action_object'
p3
S'drawer'
p4
sS'preconditions'
p5
(dp6
S'gripper_holding_drawer'
p7
I00
sS'drawer_closing_stack'
p8
I01
ssS'amdp_id'
p9
I0
sS'action_type'
p10
I0
sS'effects'
p11
(dp12
g7
I01
ssba(itask_sim.amdp_plan_action
AMDPPlanAction
p13
(dp14
g3
S'br'
p15
sg5
(dp16
g7
I01
sg8
I01
ssg9
I0
sg10
I4
sg11
(dp17
g8
I00
ssba(itask_sim.amdp_plan_action
AMDPPlanAction
p18
(dp19
g3
S'r'
p20
sg5
(dp21
g7
I01
sg8
I00
ssg9
I0
sg10
I4
sg11
(dp22
sba(itask_sim.amdp_plan_action
AMDPPlanAction
p23
(dp24
g3
S'apple'
p25
sg5
(dp26
g7
I01
sg8
I00
ssg9
I0
sg10
I0
sg11
(dp27
g7
I00
ssba(itask_sim.amdp_plan_action
AMDPPlanAction
p28
(dp29
g3
S'drawer'
p30
sg5
(dp31
g7
I00
sg8
I00
ssg9
I0
sg10
I1
sg11
(dp32
sba(itask_sim.amdp_plan_action
AMDPPlanAction
p33
(dp34
g3
S'drawer'
p35
sg5
(dp36
g7
I00
sg8
I00
ssg9
I0
sg10
I0
sg11
(dp37
g7
I01
ssba(itask_sim.amdp_plan_action
AMDPPlanAction
p38
(dp39
g3
S'stack'
p40
sg5
(dp41
g7
I01
sg8
I00
ssg9
I0
sg10
I4
sg11
(dp42
g8
I01
ssba(itask_sim.amdp_plan_action
AMDPPlanAction
p43
(dp44
g3
S''
p45
sg5
(dp46
g7
I01
sg8
I01
ssg9
I0
sg10
I2
sg11
(dp47
g7
I00
ssba(itask_sim.amdp_plan_action
AMDPPlanAction
p48
(dp49
g3
g20
sg5
(dp50
g7
I01
sg8
I01
ssg9
I0
sg10
I4
sg11
(dp51
g8
I00
ssba(itask_sim.amdp_plan_action
AMDPPlanAction
p52
(dp53
g3
g45
sg5
(dp54
g7
I01
sg8
I00
ssg9
I0
sg10
I2
sg11
(dp55
g7
I00
ssba(itask_sim.amdp_plan_action
AMDPPlanAction
p56
(dp57
g3
g20
sg5
(dp58
g7
I00
sg8
I00
ssg9
I0
sg10
I4
sg11
(dp59
sba(itask_sim.amdp_plan_action
AMDPPlanAction
p60
(dp61
g3
g45
sg5
(dp62
g7
I00
sg8
I00
ssg9
I0
sg10
I6
sg11
(dp63
sba(itask_sim.amdp_plan_action
AMDPPlanAction
p64
(dp65
g3
g45
sg5
(dp66
g7
I00
sg8
I00
ssg9
I0
sg10
I3
sg11
(dp67
sba(itask_sim.amdp_plan_action
AMDPPlanAction
p68
(dp69
g3
g45
sg5
(dp70
g7
I00
sg8
I00
ssg9
I0
sg10
I5
sg11
(dp71
sba(itask_sim.amdp_plan_action
AMDPPlanAction
p72
(dp73
g3
g30
sg5
(dp74
g7
I00
sg8
I00
ssg9
I0
sg10
I4
sg11
(dp75
sba(itask_sim.amdp_plan_action
AMDPPlanAction
p76
(dp77
g3
g45
sg5
(dp78
g7
I00
sg8
I00
ssg9
I0
sg10
I2
sg11
(dp79
sba(itask_sim.amdp_plan_action
AMDPPlanAction
p80
(dp81
g3
g40
sg5
(dp82
g7
I00
sg8
I00
ssg9
I0
sg10
I4
sg11
(dp83
g8
I01
ssba(itask_sim.amdp_plan_action
AMDPPlanAction
p84
(dp85
g3
S'apple'
p86
sg5
(dp87
g7
I00
sg8
I00
ssg9
I0
sg10
I0
sg11
(dp88
sba(itask_sim.amdp_plan_action
AMDPPlanAction
p89
(dp90
g3
g45
sg5
(dp91
g7
I00
sg8
I01
ssg9
I0
sg10
I7
sg11
(dp92
sba(itask_sim.amdp_plan_action
AMDPPlanAction
p93
(dp94
g3
S'drawer'
p95
sg5
(dp96
g7
I00
sg8
I01
ssg9
I0
sg10
I0
sg11
(dp97
sba(itask_sim.amdp_plan_action
AMDPPlanAction
p98
(dp99
g3
S'b'
p100
sg5
(dp101
g7
I00
sg8
I00
ssg9
I0
sg10
I4
sg11
(dp102
sba(itask_sim.amdp_plan_action
AMDPPlanAction
p103
(dp104
g3
S'fr'
p105
sg5
(dp106
g7
I00
sg8
I00
ssg9
I0
sg10
I4
sg11
(dp107
sba(itask_sim.amdp_plan_action
AMDPPlanAction
p108
(dp109
g3
S'bl'
p110
sg5
(dp111
g7
I00
sg8
I01
ssg9
I0
sg10
I4
sg11
(dp112
sba(itask_sim.amdp_plan_action
AMDPPlanAction
p113
(dp114
g3
g105
sg5
(dp115
g7
I01
sg8
I01
ssg9
I0
sg10
I4
sg11
(dp116
g8
I00
ssba(itask_sim.amdp_plan_action
AMDPPlanAction
p117
(dp118
g3
g40
sg5
(dp119
g7
I01
sg8
I01
ssg9
I0
sg10
I4
sg11
(dp120
sba(itask_sim.amdp_plan_action
AMDPPlanAction
p121
(dp122
g3
S'fl'
p123
sg5
(dp124
g7
I01
sg8
I00
ssg9
I0
sg10
I4
sg11
(dp125
sba(itask_sim.amdp_plan_action
AMDPPlanAction
p126
(dp127
g3
S'apple'
p128
sg5
(dp129
g7
I00
sg8
I01
ssg9
I0
sg10
I0
sg11
(dp130
sba(itask_sim.amdp_plan_action
AMDPPlanAction
p131
(dp132
g3
g40
sg5
(dp133
g7
I00
sg8
I01
ssg9
I0
sg10
I1
sg11
(dp134
sba(itask_sim.amdp_plan_action
AMDPPlanAction
p135
(dp136
g3
g40
sg5
(dp137
g7
I00
sg8
I00
ssg9
I0
sg10
I4
sg11
(dp138
sba(itask_sim.amdp_plan_action
AMDPPlanAction
p139
(dp140
g3
g45
sg5
(dp141
g7
I00
sg8
I01
ssg9
I0
sg10
I5
sg11
(dp142
sba(itask_sim.amdp_plan_action
AMDPPlanAction
p143
(dp144
g3
g40
sg5
(dp145
g7
I00
sg8
I01
ssg9
I0
sg10
I4
sg11
(dp146
sba(itask_sim.amdp_plan_action
AMDPPlanAction
p147
(dp148
g3
g45
sg5
(dp149
g7
I00
sg8
I01
ssg9
I0
sg10
I2
sg11
(dp150
sba.