(lp0
(itask_sim.amdp_plan_action
AMDPPlanAction
p1
(dp2
S'action'
p3
ccopy_reg
_reconstructor
p4
(ctmpD8rGAn
_task_sim__Action
p5
c__builtin__
object
p6
Ntp7
Rp8
(lp9
I0
aS'drawer'
p10
ag4
(cgeometry_msgs.msg._Point
Point
p11
g6
Ntp12
Rp13
(lp14
F0.0
aF0.0
aF0.0
ababsS'preconditions'
p15
(dp16
S'gripper_holding_drawer'
p17
I00
sS'drawer_closing_stack'
p18
I01
ssS'amdp_id'
p19
I0
sS'effects'
p20
(dp21
g17
I01
ssba(itask_sim.amdp_plan_action
AMDPPlanAction
p22
(dp23
g3
g4
(g5
g6
Ntp24
Rp25
(lp26
I4
aS'br'
p27
ag4
(g11
g6
Ntp28
Rp29
(lp30
F0.0
aF0.0
aF0.0
ababsg15
(dp31
g17
I01
sg18
I01
ssg19
I0
sg20
(dp32
g18
I00
ssba(itask_sim.amdp_plan_action
AMDPPlanAction
p33
(dp34
g3
g4
(g5
g6
Ntp35
Rp36
(lp37
I4
aS'r'
p38
ag4
(g11
g6
Ntp39
Rp40
(lp41
F0.0
aF0.0
aF0.0
ababsg15
(dp42
g17
I01
sg18
I00
ssg19
I0
sg20
(dp43
sba(itask_sim.amdp_plan_action
AMDPPlanAction
p44
(dp45
g3
g4
(g5
g6
Ntp46
Rp47
(lp48
I0
aS'apple'
p49
ag4
(g11
g6
Ntp50
Rp51
(lp52
F0.0
aF0.0
aF0.0
ababsg15
(dp53
g17
I01
sg18
I00
ssg19
I0
sg20
(dp54
g17
I00
ssba(itask_sim.amdp_plan_action
AMDPPlanAction
p55
(dp56
g3
g4
(g5
g6
Ntp57
Rp58
(lp59
I1
aS'drawer'
p60
ag4
(g11
g6
Ntp61
Rp62
(lp63
F0.0
aF0.0
aF0.0
ababsg15
(dp64
g17
I00
sg18
I00
ssg19
I0
sg20
(dp65
sba(itask_sim.amdp_plan_action
AMDPPlanAction
p66
(dp67
g3
g4
(g5
g6
Ntp68
Rp69
(lp70
I0
aS'drawer'
p71
ag4
(g11
g6
Ntp72
Rp73
(lp74
F0.0
aF0.0
aF0.0
ababsg15
(dp75
g17
I00
sg18
I00
ssg19
I0
sg20
(dp76
g17
I01
ssba(itask_sim.amdp_plan_action
AMDPPlanAction
p77
(dp78
g3
g4
(g5
g6
Ntp79
Rp80
(lp81
I4
aS'stack'
p82
ag4
(g11
g6
Ntp83
Rp84
(lp85
F0.0
aF0.0
aF0.0
ababsg15
(dp86
g17
I01
sg18
I00
ssg19
I0
sg20
(dp87
g18
I01
ssba(itask_sim.amdp_plan_action
AMDPPlanAction
p88
(dp89
g3
g4
(g5
g6
Ntp90
Rp91
(lp92
I2
aS''
p93
ag4
(g11
g6
Ntp94
Rp95
(lp96
F0.0
aF0.0
aF0.0
ababsg15
(dp97
g17
I01
sg18
I01
ssg19
I0
sg20
(dp98
g17
I00
ssba(itask_sim.amdp_plan_action
AMDPPlanAction
p99
(dp100
g3
g4
(g5
g6
Ntp101
Rp102
(lp103
I4
ag38
ag4
(g11
g6
Ntp104
Rp105
(lp106
F0.0
aF0.0
aF0.0
ababsg15
(dp107
g17
I01
sg18
I01
ssg19
I0
sg20
(dp108
g18
I00
ssba(itask_sim.amdp_plan_action
AMDPPlanAction
p109
(dp110
g3
g4
(g5
g6
Ntp111
Rp112
(lp113
I2
ag93
ag4
(g11
g6
Ntp114
Rp115
(lp116
F0.0
aF0.0
aF0.0
ababsg15
(dp117
g17
I01
sg18
I00
ssg19
I0
sg20
(dp118
g17
I00
ssba(itask_sim.amdp_plan_action
AMDPPlanAction
p119
(dp120
g3
g4
(g5
g6
Ntp121
Rp122
(lp123
I4
ag38
ag4
(g11
g6
Ntp124
Rp125
(lp126
F0.0
aF0.0
aF0.0
ababsg15
(dp127
g17
I00
sg18
I00
ssg19
I0
sg20
(dp128
sba(itask_sim.amdp_plan_action
AMDPPlanAction
p129
(dp130
g3
g4
(g5
g6
Ntp131
Rp132
(lp133
I6
ag93
ag4
(g11
g6
Ntp134
Rp135
(lp136
F0.0
aF0.0
aF0.0
ababsg15
(dp137
g17
I00
sg18
I00
ssg19
I0
sg20
(dp138
sba(itask_sim.amdp_plan_action
AMDPPlanAction
p139
(dp140
g3
g4
(g5
g6
Ntp141
Rp142
(lp143
I3
ag93
ag4
(g11
g6
Ntp144
Rp145
(lp146
F0.0
aF0.0
aF0.0
ababsg15
(dp147
g17
I00
sg18
I00
ssg19
I0
sg20
(dp148
sba(itask_sim.amdp_plan_action
AMDPPlanAction
p149
(dp150
g3
g4
(g5
g6
Ntp151
Rp152
(lp153
I5
ag93
ag4
(g11
g6
Ntp154
Rp155
(lp156
F0.0
aF0.0
aF0.0
ababsg15
(dp157
g17
I00
sg18
I00
ssg19
I0
sg20
(dp158
sba(itask_sim.amdp_plan_action
AMDPPlanAction
p159
(dp160
g3
g4
(g5
g6
Ntp161
Rp162
(lp163
I4
ag60
ag4
(g11
g6
Ntp164
Rp165
(lp166
F0.0
aF0.0
aF0.0
ababsg15
(dp167
g17
I00
sg18
I00
ssg19
I0
sg20
(dp168
sba(itask_sim.amdp_plan_action
AMDPPlanAction
p169
(dp170
g3
g4
(g5
g6
Ntp171
Rp172
(lp173
I2
ag93
ag4
(g11
g6
Ntp174
Rp175
(lp176
F0.0
aF0.0
aF0.0
ababsg15
(dp177
g17
I00
sg18
I00
ssg19
I0
sg20
(dp178
sba(itask_sim.amdp_plan_action
AMDPPlanAction
p179
(dp180
g3
g4
(g5
g6
Ntp181
Rp182
(lp183
I4
ag82
ag4
(g11
g6
Ntp184
Rp185
(lp186
F0.0
aF0.0
aF0.0
ababsg15
(dp187
g17
I00
sg18
I00
ssg19
I0
sg20
(dp188
g18
I01
ssba(itask_sim.amdp_plan_action
AMDPPlanAction
p189
(dp190
g3
g4
(g5
g6
Ntp191
Rp192
(lp193
I0
aS'apple'
p194
ag4
(g11
g6
Ntp195
Rp196
(lp197
F0.0
aF0.0
aF0.0
ababsg15
(dp198
g17
I00
sg18
I00
ssg19
I0
sg20
(dp199
sba(itask_sim.amdp_plan_action
AMDPPlanAction
p200
(dp201
g3
g4
(g5
g6
Ntp202
Rp203
(lp204
I7
ag93
ag4
(g11
g6
Ntp205
Rp206
(lp207
F0.0
aF0.0
aF0.0
ababsg15
(dp208
g17
I00
sg18
I01
ssg19
I0
sg20
(dp209
sba(itask_sim.amdp_plan_action
AMDPPlanAction
p210
(dp211
g3
g4
(g5
g6
Ntp212
Rp213
(lp214
I0
aS'drawer'
p215
ag4
(g11
g6
Ntp216
Rp217
(lp218
F0.0
aF0.0
aF0.0
ababsg15
(dp219
g17
I00
sg18
I01
ssg19
I0
sg20
(dp220
sba(itask_sim.amdp_plan_action
AMDPPlanAction
p221
(dp222
g3
g4
(g5
g6
Ntp223
Rp224
(lp225
I4
aS'b'
p226
ag4
(g11
g6
Ntp227
Rp228
(lp229
F0.0
aF0.0
aF0.0
ababsg15
(dp230
g17
I00
sg18
I00
ssg19
I0
sg20
(dp231
sba(itask_sim.amdp_plan_action
AMDPPlanAction
p232
(dp233
g3
g4
(g5
g6
Ntp234
Rp235
(lp236
I4
aS'fr'
p237
ag4
(g11
g6
Ntp238
Rp239
(lp240
F0.0
aF0.0
aF0.0
ababsg15
(dp241
g17
I00
sg18
I00
ssg19
I0
sg20
(dp242
sba(itask_sim.amdp_plan_action
AMDPPlanAction
p243
(dp244
g3
g4
(g5
g6
Ntp245
Rp246
(lp247
I4
aS'bl'
p248
ag4
(g11
g6
Ntp249
Rp250
(lp251
F0.0
aF0.0
aF0.0
ababsg15
(dp252
g17
I00
sg18
I01
ssg19
I0
sg20
(dp253
sba(itask_sim.amdp_plan_action
AMDPPlanAction
p254
(dp255
g3
g4
(g5
g6
Ntp256
Rp257
(lp258
I4
ag237
ag4
(g11
g6
Ntp259
Rp260
(lp261
F0.0
aF0.0
aF0.0
ababsg15
(dp262
g17
I01
sg18
I01
ssg19
I0
sg20
(dp263
g18
I00
ssba(itask_sim.amdp_plan_action
AMDPPlanAction
p264
(dp265
g3
g4
(g5
g6
Ntp266
Rp267
(lp268
I4
ag82
ag4
(g11
g6
Ntp269
Rp270
(lp271
F0.0
aF0.0
aF0.0
ababsg15
(dp272
g17
I01
sg18
I01
ssg19
I0
sg20
(dp273
sba(itask_sim.amdp_plan_action
AMDPPlanAction
p274
(dp275
g3
g4
(g5
g6
Ntp276
Rp277
(lp278
I4
aS'fl'
p279
ag4
(g11
g6
Ntp280
Rp281
(lp282
F0.0
aF0.0
aF0.0
ababsg15
(dp283
g17
I01
sg18
I00
ssg19
I0
sg20
(dp284
sba(itask_sim.amdp_plan_action
AMDPPlanAction
p285
(dp286
g3
g4
(g5
g6
Ntp287
Rp288
(lp289
I0
aS'apple'
p290
ag4
(g11
g6
Ntp291
Rp292
(lp293
F0.0
aF0.0
aF0.0
ababsg15
(dp294
g17
I00
sg18
I01
ssg19
I0
sg20
(dp295
sba(itask_sim.amdp_plan_action
AMDPPlanAction
p296
(dp297
g3
g4
(g5
g6
Ntp298
Rp299
(lp300
I1
ag82
ag4
(g11
g6
Ntp301
Rp302
(lp303
F0.0
aF0.0
aF0.0
ababsg15
(dp304
g17
I00
sg18
I01
ssg19
I0
sg20
(dp305
sba(itask_sim.amdp_plan_action
AMDPPlanAction
p306
(dp307
g3
g4
(g5
g6
Ntp308
Rp309
(lp310
I4
ag82
ag4
(g11
g6
Ntp311
Rp312
(lp313
F0.0
aF0.0
aF0.0
ababsg15
(dp314
g17
I00
sg18
I00
ssg19
I0
sg20
(dp315
sba(itask_sim.amdp_plan_action
AMDPPlanAction
p316
(dp317
g3
g4
(g5
g6
Ntp318
Rp319
(lp320
I5
ag93
ag4
(g11
g6
Ntp321
Rp322
(lp323
F0.0
aF0.0
aF0.0
ababsg15
(dp324
g17
I00
sg18
I01
ssg19
I0
sg20
(dp325
sba(itask_sim.amdp_plan_action
AMDPPlanAction
p326
(dp327
g3
g4
(g5
g6
Ntp328
Rp329
(lp330
I4
ag82
ag4
(g11
g6
Ntp331
Rp332
(lp333
F0.0
aF0.0
aF0.0
ababsg15
(dp334
g17
I00
sg18
I01
ssg19
I0
sg20
(dp335
sba(itask_sim.amdp_plan_action
AMDPPlanAction
p336
(dp337
g3
g4
(g5
g6
Ntp338
Rp339
(lp340
I2
ag93
ag4
(g11
g6
Ntp341
Rp342
(lp343
F0.0
aF0.0
aF0.0
ababsg15
(dp344
g17
I00
sg18
I01
ssg19
I0
sg20
(dp345
sba.