(lp0
(itask_sim.amdp_plan_action
AMDPPlanAction
p1
(dp2
S'action'
p3
ccopy_reg
_reconstructor
p4
(ctmpAA890m
_task_sim__Action
p5
c__builtin__
object
p6
Ntp7
Rp8
(lp9
I0
aS'drawer'
p10
ag4
(cgeometry_msgs.msg._Point
Point
p11
g6
Ntp12
Rp13
(lp14
F0.0
aF0.0
aF0.0
ababsS'preconditions'
p15
(dp16
S'apple_in_drawer'
p17
I00
sS'gripper_holding_apple'
p18
I00
sS'drawer_closing_stack'
p19
I01
sS'gripper_holding_drawer'
p20
I00
ssS'amdp_id'
p21
I2
sS'effects'
p22
(dp23
g20
I01
ssba(itask_sim.amdp_plan_action
AMDPPlanAction
p24
(dp25
g3
g4
(g5
g6
Ntp26
Rp27
(lp28
I4
aS'br'
p29
ag4
(g11
g6
Ntp30
Rp31
(lp32
F0.0
aF0.0
aF0.0
ababsg15
(dp33
g17
I00
sg18
I00
sg19
I01
sg20
I01
ssg21
I2
sg22
(dp34
g19
I00
ssba(itask_sim.amdp_plan_action
AMDPPlanAction
p35
(dp36
g3
g4
(g5
g6
Ntp37
Rp38
(lp39
I4
aS'r'
p40
ag4
(g11
g6
Ntp41
Rp42
(lp43
F0.0
aF0.0
aF0.0
ababsg15
(dp44
g17
I00
sg18
I00
sg19
I00
sg20
I01
ssg21
I2
sg22
(dp45
sba(itask_sim.amdp_plan_action
AMDPPlanAction
p46
(dp47
g3
g4
(g5
g6
Ntp48
Rp49
(lp50
I0
aS'apple'
p51
ag4
(g11
g6
Ntp52
Rp53
(lp54
F0.0
aF0.0
aF0.0
ababsg15
(dp55
g17
I00
sg18
I00
sg19
I00
sg20
I01
ssg21
I2
sg22
(dp56
g20
I00
sg18
I01
ssba(itask_sim.amdp_plan_action
AMDPPlanAction
p57
(dp58
g3
g4
(g5
g6
Ntp59
Rp60
(lp61
I1
aS'drawer'
p62
ag4
(g11
g6
Ntp63
Rp64
(lp65
F0.0
aF0.0
aF0.0
ababsg15
(dp66
g17
I00
sg18
I01
sg19
I00
sg20
I00
ssg21
I2
sg22
(dp67
g17
I01
sg18
I00
ssba(itask_sim.amdp_plan_action
AMDPPlanAction
p68
(dp69
g3
g4
(g5
g6
Ntp70
Rp71
(lp72
I0
aS'drawer'
p73
ag4
(g11
g6
Ntp74
Rp75
(lp76
F0.0
aF0.0
aF0.0
ababsg15
(dp77
g17
I01
sg18
I00
sg19
I00
sg20
I00
ssg21
I2
sg22
(dp78
g20
I01
ssba(itask_sim.amdp_plan_action
AMDPPlanAction
p79
(dp80
g3
g4
(g5
g6
Ntp81
Rp82
(lp83
I4
aS'stack'
p84
ag4
(g11
g6
Ntp85
Rp86
(lp87
F0.0
aF0.0
aF0.0
ababsg15
(dp88
g17
I01
sg18
I00
sg19
I00
sg20
I01
ssg21
I2
sg22
(dp89
g19
I01
ssba(itask_sim.amdp_plan_action
AMDPPlanAction
p90
(dp91
g3
g4
(g5
g6
Ntp92
Rp93
(lp94
I2
aS''
p95
ag4
(g11
g6
Ntp96
Rp97
(lp98
F0.0
aF0.0
aF0.0
ababsg15
(dp99
g17
I01
sg18
I00
sg19
I01
sg20
I01
ssg21
I2
sg22
(dp100
g20
I00
ssba(itask_sim.amdp_plan_action
AMDPPlanAction
p101
(dp102
g3
g4
(g5
g6
Ntp103
Rp104
(lp105
I4
ag40
ag4
(g11
g6
Ntp106
Rp107
(lp108
F0.0
aF0.0
aF0.0
ababsg15
(dp109
g17
I00
sg18
I00
sg19
I01
sg20
I01
ssg21
I2
sg22
(dp110
g19
I00
ssba(itask_sim.amdp_plan_action
AMDPPlanAction
p111
(dp112
g3
g4
(g5
g6
Ntp113
Rp114
(lp115
I2
ag95
ag4
(g11
g6
Ntp116
Rp117
(lp118
F0.0
aF0.0
aF0.0
ababsg15
(dp119
g17
I00
sg18
I00
sg19
I00
sg20
I01
ssg21
I2
sg22
(dp120
g20
I00
ssba(itask_sim.amdp_plan_action
AMDPPlanAction
p121
(dp122
g3
g4
(g5
g6
Ntp123
Rp124
(lp125
I4
ag40
ag4
(g11
g6
Ntp126
Rp127
(lp128
F0.0
aF0.0
aF0.0
ababsg15
(dp129
g17
I00
sg18
I00
sg19
I00
sg20
I00
ssg21
I2
sg22
(dp130
sba(itask_sim.amdp_plan_action
AMDPPlanAction
p131
(dp132
g3
g4
(g5
g6
Ntp133
Rp134
(lp135
I6
ag95
ag4
(g11
g6
Ntp136
Rp137
(lp138
F0.0
aF0.0
aF0.0
ababsg15
(dp139
g17
I00
sg18
I00
sg19
I00
sg20
I00
ssg21
I2
sg22
(dp140
sba(itask_sim.amdp_plan_action
AMDPPlanAction
p141
(dp142
g3
g4
(g5
g6
Ntp143
Rp144
(lp145
I3
ag95
ag4
(g11
g6
Ntp146
Rp147
(lp148
F0.0
aF0.0
aF0.0
ababsg15
(dp149
g17
I00
sg18
I00
sg19
I00
sg20
I00
ssg21
I2
sg22
(dp150
g18
I01
ssba(itask_sim.amdp_plan_action
AMDPPlanAction
p151
(dp152
g3
g4
(g5
g6
Ntp153
Rp154
(lp155
I5
ag95
ag4
(g11
g6
Ntp156
Rp157
(lp158
F0.0
aF0.0
aF0.0
ababsg15
(dp159
g17
I00
sg18
I01
sg19
I00
sg20
I00
ssg21
I2
sg22
(dp160
sba(itask_sim.amdp_plan_action
AMDPPlanAction
p161
(dp162
g3
g4
(g5
g6
Ntp163
Rp164
(lp165
I4
ag62
ag4
(g11
g6
Ntp166
Rp167
(lp168
F0.0
aF0.0
aF0.0
ababsg15
(dp169
g17
I00
sg18
I01
sg19
I00
sg20
I00
ssg21
I2
sg22
(dp170
sba(itask_sim.amdp_plan_action
AMDPPlanAction
p171
(dp172
g3
g4
(g5
g6
Ntp173
Rp174
(lp175
I2
ag95
ag4
(g11
g6
Ntp176
Rp177
(lp178
F0.0
aF0.0
aF0.0
ababsg15
(dp179
g17
I00
sg18
I01
sg19
I00
sg20
I00
ssg21
I2
sg22
(dp180
g17
I01
sg18
I00
ssba(itask_sim.amdp_plan_action
AMDPPlanAction
p181
(dp182
g3
g4
(g5
g6
Ntp183
Rp184
(lp185
I4
ag40
ag4
(g11
g6
Ntp186
Rp187
(lp188
F0.0
aF0.0
aF0.0
ababsg15
(dp189
g17
I01
sg18
I00
sg19
I00
sg20
I00
ssg21
I2
sg22
(dp190
sba(itask_sim.amdp_plan_action
AMDPPlanAction
p191
(dp192
g3
g4
(g5
g6
Ntp193
Rp194
(lp195
I6
ag95
ag4
(g11
g6
Ntp196
Rp197
(lp198
F0.0
aF0.0
aF0.0
ababsg15
(dp199
g17
I01
sg18
I00
sg19
I00
sg20
I00
ssg21
I2
sg22
(dp200
sba(itask_sim.amdp_plan_action
AMDPPlanAction
p201
(dp202
g3
g4
(g5
g6
Ntp203
Rp204
(lp205
I4
ag84
ag4
(g11
g6
Ntp206
Rp207
(lp208
F0.0
aF0.0
aF0.0
ababsg15
(dp209
g17
I01
sg18
I00
sg19
I00
sg20
I00
ssg21
I2
sg22
(dp210
g19
I01
ssba(itask_sim.amdp_plan_action
AMDPPlanAction
p211
(dp212
g3
g4
(g5
g6
Ntp213
Rp214
(lp215
I0
aS'apple'
p216
ag4
(g11
g6
Ntp217
Rp218
(lp219
F0.0
aF0.0
aF0.0
ababsg15
(dp220
g17
I00
sg18
I00
sg19
I00
sg20
I00
ssg21
I2
sg22
(dp221
g18
I01
ssba(itask_sim.amdp_plan_action
AMDPPlanAction
p222
(dp223
g3
g4
(g5
g6
Ntp224
Rp225
(lp226
I7
ag95
ag4
(g11
g6
Ntp227
Rp228
(lp229
F0.0
aF0.0
aF0.0
ababsg15
(dp230
g17
I00
sg18
I00
sg19
I01
sg20
I00
ssg21
I2
sg22
(dp231
sba(itask_sim.amdp_plan_action
AMDPPlanAction
p232
(dp233
g3
g4
(g5
g6
Ntp234
Rp235
(lp236
I0
aS'apple'
p237
ag4
(g11
g6
Ntp238
Rp239
(lp240
F0.0
aF0.0
aF0.0
ababsg15
(dp241
g17
I00
sg18
I00
sg19
I00
sg20
I00
ssg21
I2
sg22
(dp242
sba(itask_sim.amdp_plan_action
AMDPPlanAction
p243
(dp244
g3
g4
(g5
g6
Ntp245
Rp246
(lp247
I5
ag95
ag4
(g11
g6
Ntp248
Rp249
(lp250
F0.0
aF0.0
aF0.0
ababsg15
(dp251
g17
I00
sg18
I00
sg19
I00
sg20
I00
ssg21
I2
sg22
(dp252
sba(itask_sim.amdp_plan_action
AMDPPlanAction
p253
(dp254
g3
g4
(g5
g6
Ntp255
Rp256
(lp257
I0
aS'drawer'
p258
ag4
(g11
g6
Ntp259
Rp260
(lp261
F0.0
aF0.0
aF0.0
ababsg15
(dp262
g17
I00
sg18
I00
sg19
I01
sg20
I00
ssg21
I2
sg22
(dp263
sba(itask_sim.amdp_plan_action
AMDPPlanAction
p264
(dp265
g3
g4
(g5
g6
Ntp266
Rp267
(lp268
I5
ag95
ag4
(g11
g6
Ntp269
Rp270
(lp271
F0.0
aF0.0
aF0.0
ababsg15
(dp272
g17
I01
sg18
I00
sg19
I00
sg20
I00
ssg21
I2
sg22
(dp273
sba(itask_sim.amdp_plan_action
AMDPPlanAction
p274
(dp275
g3
g4
(g5
g6
Ntp276
Rp277
(lp278
I0
aS'apple'
p279
ag4
(g11
g6
Ntp280
Rp281
(lp282
F0.0
aF0.0
aF0.0
ababsg15
(dp283
g17
I00
sg18
I00
sg19
I00
sg20
I01
ssg21
I2
sg22
(dp284
g20
I00
ssba(itask_sim.amdp_plan_action
AMDPPlanAction
p285
(dp286
g3
g4
(g5
g6
Ntp287
Rp288
(lp289
I4
aS'b'
p290
ag4
(g11
g6
Ntp291
Rp292
(lp293
F0.0
aF0.0
aF0.0
ababsg15
(dp294
g17
I00
sg18
I00
sg19
I00
sg20
I00
ssg21
I2
sg22
(dp295
sba(itask_sim.amdp_plan_action
AMDPPlanAction
p296
(dp297
g3
g4
(g5
g6
Ntp298
Rp299
(lp300
I4
aS'fr'
p301
ag4
(g11
g6
Ntp302
Rp303
(lp304
F0.0
aF0.0
aF0.0
ababsg15
(dp305
g17
I00
sg18
I00
sg19
I00
sg20
I00
ssg21
I2
sg22
(dp306
sba(itask_sim.amdp_plan_action
AMDPPlanAction
p307
(dp308
g3
g4
(g5
g6
Ntp309
Rp310
(lp311
I4
aS'bl'
p312
ag4
(g11
g6
Ntp313
Rp314
(lp315
F0.0
aF0.0
aF0.0
ababsg15
(dp316
g17
I00
sg18
I00
sg19
I01
sg20
I00
ssg21
I2
sg22
(dp317
sba(itask_sim.amdp_plan_action
AMDPPlanAction
p318
(dp319
g3
g4
(g5
g6
Ntp320
Rp321
(lp322
I4
ag301
ag4
(g11
g6
Ntp323
Rp324
(lp325
F0.0
aF0.0
aF0.0
ababsg15
(dp326
g17
I00
sg18
I00
sg19
I01
sg20
I01
ssg21
I2
sg22
(dp327
g19
I00
ssba(itask_sim.amdp_plan_action
AMDPPlanAction
p328
(dp329
g3
g4
(g5
g6
Ntp330
Rp331
(lp332
I4
ag84
ag4
(g11
g6
Ntp333
Rp334
(lp335
F0.0
aF0.0
aF0.0
ababsg15
(dp336
g17
I00
sg18
I00
sg19
I01
sg20
I01
ssg21
I2
sg22
(dp337
sba(itask_sim.amdp_plan_action
AMDPPlanAction
p338
(dp339
g3
g4
(g5
g6
Ntp340
Rp341
(lp342
I2
ag95
ag4
(g11
g6
Ntp343
Rp344
(lp345
F0.0
aF0.0
aF0.0
ababsg15
(dp346
g17
I01
sg18
I00
sg19
I00
sg20
I01
ssg21
I2
sg22
(dp347
g20
I00
ssba(itask_sim.amdp_plan_action
AMDPPlanAction
p348
(dp349
g3
g4
(g5
g6
Ntp350
Rp351
(lp352
I4
aS'fl'
p353
ag4
(g11
g6
Ntp354
Rp355
(lp356
F0.0
aF0.0
aF0.0
ababsg15
(dp357
g17
I01
sg18
I00
sg19
I00
sg20
I01
ssg21
I2
sg22
(dp358
sba(itask_sim.amdp_plan_action
AMDPPlanAction
p359
(dp360
g3
g4
(g5
g6
Ntp361
Rp362
(lp363
I0
aS'apple'
p364
ag4
(g11
g6
Ntp365
Rp366
(lp367
F0.0
aF0.0
aF0.0
ababsg15
(dp368
g17
I00
sg18
I00
sg19
I01
sg20
I00
ssg21
I2
sg22
(dp369
g18
I01
ssba(itask_sim.amdp_plan_action
AMDPPlanAction
p370
(dp371
g3
g4
(g5
g6
Ntp372
Rp373
(lp374
I1
ag84
ag4
(g11
g6
Ntp375
Rp376
(lp377
F0.0
aF0.0
aF0.0
ababsg15
(dp378
g17
I00
sg18
I01
sg19
I01
sg20
I00
ssg21
I2
sg22
(dp379
g18
I00
ssba(itask_sim.amdp_plan_action
AMDPPlanAction
p380
(dp381
g3
g4
(g5
g6
Ntp382
Rp383
(lp384
I4
ag84
ag4
(g11
g6
Ntp385
Rp386
(lp387
F0.0
aF0.0
aF0.0
ababsg15
(dp388
g17
I00
sg18
I00
sg19
I00
sg20
I00
ssg21
I2
sg22
(dp389
sba(itask_sim.amdp_plan_action
AMDPPlanAction
p390
(dp391
g3
g4
(g5
g6
Ntp392
Rp393
(lp394
I4
ag40
ag4
(g11
g6
Ntp395
Rp396
(lp397
F0.0
aF0.0
aF0.0
ababsg15
(dp398
g17
I00
sg18
I00
sg19
I00
sg20
I00
ssg21
I2
sg22
(dp399
g17
I01
ssba(itask_sim.amdp_plan_action
AMDPPlanAction
p400
(dp401
g3
g4
(g5
g6
Ntp402
Rp403
(lp404
I5
ag95
ag4
(g11
g6
Ntp405
Rp406
(lp407
F0.0
aF0.0
aF0.0
ababsg15
(dp408
g17
I00
sg18
I01
sg19
I01
sg20
I00
ssg21
I2
sg22
(dp409
sba(itask_sim.amdp_plan_action
AMDPPlanAction
p410
(dp411
g3
g4
(g5
g6
Ntp412
Rp413
(lp414
I4
ag84
ag4
(g11
g6
Ntp415
Rp416
(lp417
F0.0
aF0.0
aF0.0
ababsg15
(dp418
g17
I00
sg18
I01
sg19
I01
sg20
I00
ssg21
I2
sg22
(dp419
sba(itask_sim.amdp_plan_action
AMDPPlanAction
p420
(dp421
g3
g4
(g5
g6
Ntp422
Rp423
(lp424
I2
ag95
ag4
(g11
g6
Ntp425
Rp426
(lp427
F0.0
aF0.0
aF0.0
ababsg15
(dp428
g17
I00
sg18
I01
sg19
I01
sg20
I00
ssg21
I2
sg22
(dp429
g18
I00
ssba(itask_sim.amdp_plan_action
AMDPPlanAction
p430
(dp431
g3
g4
(g5
g6
Ntp432
Rp433
(lp434
I1
ag62
ag4
(g11
g6
Ntp435
Rp436
(lp437
F0.0
aF0.0
aF0.0
ababsg15
(dp438
g17
I00
sg18
I01
sg19
I00
sg20
I00
ssg21
I2
sg22
(dp439
sba(itask_sim.amdp_plan_action
AMDPPlanAction
p440
(dp441
g3
g4
(g5
g6
Ntp442
Rp443
(lp444
I5
ag95
ag4
(g11
g6
Ntp445
Rp446
(lp447
F0.0
aF0.0
aF0.0
ababsg15
(dp448
g17
I00
sg18
I00
sg19
I01
sg20
I00
ssg21
I2
sg22
(dp449
sba.