(lp0
(itask_sim.amdp_plan_action
AMDPPlanAction
p1
(dp2
S'action_object'
p3
S'drawer'
p4
sS'preconditions'
p5
(dp6
S'apple_in_drawer'
p7
I00
sS'gripper_holding_apple'
p8
I00
sS'drawer_closing_stack'
p9
I01
sS'gripper_holding_drawer'
p10
I00
ssS'amdp_id'
p11
I2
sS'action_type'
p12
I0
sS'effects'
p13
(dp14
g10
I01
ssba(itask_sim.amdp_plan_action
AMDPPlanAction
p15
(dp16
g3
S'br'
p17
sg5
(dp18
g7
I00
sg8
I00
sg9
I01
sg10
I01
ssg11
I2
sg12
I4
sg13
(dp19
g9
I00
ssba(itask_sim.amdp_plan_action
AMDPPlanAction
p20
(dp21
g3
S'r'
p22
sg5
(dp23
g7
I00
sg8
I00
sg9
I00
sg10
I01
ssg11
I2
sg12
I4
sg13
(dp24
sba(itask_sim.amdp_plan_action
AMDPPlanAction
p25
(dp26
g3
S'apple'
p27
sg5
(dp28
g7
I00
sg8
I00
sg9
I00
sg10
I01
ssg11
I2
sg12
I0
sg13
(dp29
g10
I00
sg8
I01
ssba(itask_sim.amdp_plan_action
AMDPPlanAction
p30
(dp31
g3
S'drawer'
p32
sg5
(dp33
g7
I00
sg8
I01
sg9
I00
sg10
I00
ssg11
I2
sg12
I1
sg13
(dp34
g7
I01
sg8
I00
ssba(itask_sim.amdp_plan_action
AMDPPlanAction
p35
(dp36
g3
S'drawer'
p37
sg5
(dp38
g7
I01
sg8
I00
sg9
I00
sg10
I00
ssg11
I2
sg12
I0
sg13
(dp39
g10
I01
ssba(itask_sim.amdp_plan_action
AMDPPlanAction
p40
(dp41
g3
S'stack'
p42
sg5
(dp43
g7
I01
sg8
I00
sg9
I00
sg10
I01
ssg11
I2
sg12
I4
sg13
(dp44
g9
I01
ssba(itask_sim.amdp_plan_action
AMDPPlanAction
p45
(dp46
g3
S''
p47
sg5
(dp48
g7
I01
sg8
I00
sg9
I01
sg10
I01
ssg11
I2
sg12
I2
sg13
(dp49
g10
I00
ssba(itask_sim.amdp_plan_action
AMDPPlanAction
p50
(dp51
g3
g22
sg5
(dp52
g7
I00
sg8
I00
sg9
I01
sg10
I01
ssg11
I2
sg12
I4
sg13
(dp53
g9
I00
ssba(itask_sim.amdp_plan_action
AMDPPlanAction
p54
(dp55
g3
g47
sg5
(dp56
g7
I00
sg8
I00
sg9
I00
sg10
I01
ssg11
I2
sg12
I2
sg13
(dp57
g10
I00
ssba(itask_sim.amdp_plan_action
AMDPPlanAction
p58
(dp59
g3
g22
sg5
(dp60
g7
I00
sg8
I00
sg9
I00
sg10
I00
ssg11
I2
sg12
I4
sg13
(dp61
sba(itask_sim.amdp_plan_action
AMDPPlanAction
p62
(dp63
g3
g47
sg5
(dp64
g7
I00
sg8
I00
sg9
I00
sg10
I00
ssg11
I2
sg12
I6
sg13
(dp65
sba(itask_sim.amdp_plan_action
AMDPPlanAction
p66
(dp67
g3
g47
sg5
(dp68
g7
I00
sg8
I00
sg9
I00
sg10
I00
ssg11
I2
sg12
I3
sg13
(dp69
g8
I01
ssba(itask_sim.amdp_plan_action
AMDPPlanAction
p70
(dp71
g3
g47
sg5
(dp72
g7
I00
sg8
I01
sg9
I00
sg10
I00
ssg11
I2
sg12
I5
sg13
(dp73
sba(itask_sim.amdp_plan_action
AMDPPlanAction
p74
(dp75
g3
g32
sg5
(dp76
g7
I00
sg8
I01
sg9
I00
sg10
I00
ssg11
I2
sg12
I4
sg13
(dp77
sba(itask_sim.amdp_plan_action
AMDPPlanAction
p78
(dp79
g3
g47
sg5
(dp80
g7
I00
sg8
I01
sg9
I00
sg10
I00
ssg11
I2
sg12
I2
sg13
(dp81
g7
I01
sg8
I00
ssba(itask_sim.amdp_plan_action
AMDPPlanAction
p82
(dp83
g3
g22
sg5
(dp84
g7
I01
sg8
I00
sg9
I00
sg10
I00
ssg11
I2
sg12
I4
sg13
(dp85
sba(itask_sim.amdp_plan_action
AMDPPlanAction
p86
(dp87
g3
g47
sg5
(dp88
g7
I01
sg8
I00
sg9
I00
sg10
I00
ssg11
I2
sg12
I6
sg13
(dp89
sba(itask_sim.amdp_plan_action
AMDPPlanAction
p90
(dp91
g3
g42
sg5
(dp92
g7
I01
sg8
I00
sg9
I00
sg10
I00
ssg11
I2
sg12
I4
sg13
(dp93
g9
I01
ssba(itask_sim.amdp_plan_action
AMDPPlanAction
p94
(dp95
g3
S'apple'
p96
sg5
(dp97
g7
I00
sg8
I00
sg9
I00
sg10
I00
ssg11
I2
sg12
I0
sg13
(dp98
g8
I01
ssba(itask_sim.amdp_plan_action
AMDPPlanAction
p99
(dp100
g3
g47
sg5
(dp101
g7
I00
sg8
I00
sg9
I01
sg10
I00
ssg11
I2
sg12
I7
sg13
(dp102
sba(itask_sim.amdp_plan_action
AMDPPlanAction
p103
(dp104
g3
S'apple'
p105
sg5
(dp106
g7
I00
sg8
I00
sg9
I00
sg10
I00
ssg11
I2
sg12
I0
sg13
(dp107
sba(itask_sim.amdp_plan_action
AMDPPlanAction
p108
(dp109
g3
g47
sg5
(dp110
g7
I00
sg8
I00
sg9
I00
sg10
I00
ssg11
I2
sg12
I5
sg13
(dp111
sba(itask_sim.amdp_plan_action
AMDPPlanAction
p112
(dp113
g3
S'drawer'
p114
sg5
(dp115
g7
I00
sg8
I00
sg9
I01
sg10
I00
ssg11
I2
sg12
I0
sg13
(dp116
sba(itask_sim.amdp_plan_action
AMDPPlanAction
p117
(dp118
g3
g47
sg5
(dp119
g7
I01
sg8
I00
sg9
I00
sg10
I00
ssg11
I2
sg12
I5
sg13
(dp120
sba(itask_sim.amdp_plan_action
AMDPPlanAction
p121
(dp122
g3
S'apple'
p123
sg5
(dp124
g7
I00
sg8
I00
sg9
I00
sg10
I01
ssg11
I2
sg12
I0
sg13
(dp125
g10
I00
ssba(itask_sim.amdp_plan_action
AMDPPlanAction
p126
(dp127
g3
S'b'
p128
sg5
(dp129
g7
I00
sg8
I00
sg9
I00
sg10
I00
ssg11
I2
sg12
I4
sg13
(dp130
sba(itask_sim.amdp_plan_action
AMDPPlanAction
p131
(dp132
g3
S'fr'
p133
sg5
(dp134
g7
I00
sg8
I00
sg9
I00
sg10
I00
ssg11
I2
sg12
I4
sg13
(dp135
sba(itask_sim.amdp_plan_action
AMDPPlanAction
p136
(dp137
g3
S'bl'
p138
sg5
(dp139
g7
I00
sg8
I00
sg9
I01
sg10
I00
ssg11
I2
sg12
I4
sg13
(dp140
sba(itask_sim.amdp_plan_action
AMDPPlanAction
p141
(dp142
g3
g133
sg5
(dp143
g7
I00
sg8
I00
sg9
I01
sg10
I01
ssg11
I2
sg12
I4
sg13
(dp144
g9
I00
ssba(itask_sim.amdp_plan_action
AMDPPlanAction
p145
(dp146
g3
g42
sg5
(dp147
g7
I00
sg8
I00
sg9
I01
sg10
I01
ssg11
I2
sg12
I4
sg13
(dp148
sba(itask_sim.amdp_plan_action
AMDPPlanAction
p149
(dp150
g3
g47
sg5
(dp151
g7
I01
sg8
I00
sg9
I00
sg10
I01
ssg11
I2
sg12
I2
sg13
(dp152
g10
I00
ssba(itask_sim.amdp_plan_action
AMDPPlanAction
p153
(dp154
g3
S'fl'
p155
sg5
(dp156
g7
I01
sg8
I00
sg9
I00
sg10
I01
ssg11
I2
sg12
I4
sg13
(dp157
sba(itask_sim.amdp_plan_action
AMDPPlanAction
p158
(dp159
g3
S'apple'
p160
sg5
(dp161
g7
I00
sg8
I00
sg9
I01
sg10
I00
ssg11
I2
sg12
I0
sg13
(dp162
g8
I01
ssba(itask_sim.amdp_plan_action
AMDPPlanAction
p163
(dp164
g3
g42
sg5
(dp165
g7
I00
sg8
I01
sg9
I01
sg10
I00
ssg11
I2
sg12
I1
sg13
(dp166
g8
I00
ssba(itask_sim.amdp_plan_action
AMDPPlanAction
p167
(dp168
g3
g42
sg5
(dp169
g7
I00
sg8
I00
sg9
I00
sg10
I00
ssg11
I2
sg12
I4
sg13
(dp170
sba(itask_sim.amdp_plan_action
AMDPPlanAction
p171
(dp172
g3
g22
sg5
(dp173
g7
I00
sg8
I00
sg9
I00
sg10
I00
ssg11
I2
sg12
I4
sg13
(dp174
g7
I01
ssba(itask_sim.amdp_plan_action
AMDPPlanAction
p175
(dp176
g3
g47
sg5
(dp177
g7
I00
sg8
I01
sg9
I01
sg10
I00
ssg11
I2
sg12
I5
sg13
(dp178
sba(itask_sim.amdp_plan_action
AMDPPlanAction
p179
(dp180
g3
g42
sg5
(dp181
g7
I00
sg8
I01
sg9
I01
sg10
I00
ssg11
I2
sg12
I4
sg13
(dp182
sba(itask_sim.amdp_plan_action
AMDPPlanAction
p183
(dp184
g3
g47
sg5
(dp185
g7
I00
sg8
I01
sg9
I01
sg10
I00
ssg11
I2
sg12
I2
sg13
(dp186
g8
I00
ssba(itask_sim.amdp_plan_action
AMDPPlanAction
p187
(dp188
g3
g32
sg5
(dp189
g7
I00
sg8
I01
sg9
I00
sg10
I00
ssg11
I2
sg12
I1
sg13
(dp190
sba(itask_sim.amdp_plan_action
AMDPPlanAction
p191
(dp192
g3
g47
sg5
(dp193
g7
I00
sg8
I00
sg9
I01
sg10
I00
ssg11
I2
sg12
I5
sg13
(dp194
sba.