(dp0
(itask_sim.amdp_plan_action
AMDPPlanAction
p1
(dp2
S'action'
p3
ccopy_reg
_reconstructor
p4
(ctmpAA890m
_task_sim__Action
p5
c__builtin__
object
p6
Ntp7
Rp8
(lp9
I6
aS''
p10
ag4
(cgeometry_msgs.msg._Point
Point
p11
g6
Ntp12
Rp13
(lp14
F0.0
aF0.0
aF0.0
ababsS'preconditions'
p15
(dp16
S'apple_in_drawer'
p17
I01
sS'gripper_holding_apple'
p18
I00
sS'drawer_closing_stack'
p19
I00
sS'gripper_holding_drawer'
p20
I00
ssS'amdp_id'
p21
I2
sS'effects'
p22
(dp23
sbS'6:-f'
p24
s(itask_sim.amdp_plan_action
AMDPPlanAction
p25
(dp26
g3
g4
(g5
g6
Ntp27
Rp28
(lp29
I5
ag10
ag4
(g11
g6
Ntp30
Rp31
(lp32
F0.0
aF0.0
aF0.0
ababsg15
(dp33
g17
I00
sg18
I00
sg19
I00
sg20
I00
ssg21
I2
sg22
(dp34
sbS'5:-f'
p35
s(itask_sim.amdp_plan_action
AMDPPlanAction
p36
(dp37
g3
g4
(g5
g6
Ntp38
Rp39
(lp40
I0
aS'apple'
p41
ag4
(g11
g6
Ntp42
Rp43
(lp44
F0.0
aF0.0
aF0.0
ababsg15
(dp45
g17
I00
sg18
I00
sg19
I01
sg20
I00
ssg21
I2
sg22
(dp46
g18
I01
ssbS'0:apple'
p47
s(itask_sim.amdp_plan_action
AMDPPlanAction
p48
(dp49
g3
g4
(g5
g6
Ntp50
Rp51
(lp52
I5
ag10
ag4
(g11
g6
Ntp53
Rp54
(lp55
F0.0
aF0.0
aF0.0
ababsg15
(dp56
g17
I00
sg18
I01
sg19
I00
sg20
I00
ssg21
I2
sg22
(dp57
sbS'5:-f'
p58
s(itask_sim.amdp_plan_action
AMDPPlanAction
p59
(dp60
g3
g4
(g5
g6
Ntp61
Rp62
(lp63
I4
aS'r'
p64
ag4
(g11
g6
Ntp65
Rp66
(lp67
F0.0
aF0.0
aF0.0
ababsg15
(dp68
g17
I00
sg18
I00
sg19
I01
sg20
I01
ssg21
I2
sg22
(dp69
g19
I00
ssbS'4:r'
p70
s(itask_sim.amdp_plan_action
AMDPPlanAction
p71
(dp72
g3
g4
(g5
g6
Ntp73
Rp74
(lp75
I0
aS'apple'
p76
ag4
(g11
g6
Ntp77
Rp78
(lp79
F0.0
aF0.0
aF0.0
ababsg15
(dp80
g17
I00
sg18
I00
sg19
I00
sg20
I01
ssg21
I2
sg22
(dp81
g20
I00
sg18
I01
ssbS'0:apple'
p82
s(itask_sim.amdp_plan_action
AMDPPlanAction
p83
(dp84
g3
g4
(g5
g6
Ntp85
Rp86
(lp87
I1
aS'drawer'
p88
ag4
(g11
g6
Ntp89
Rp90
(lp91
F0.0
aF0.0
aF0.0
ababsg15
(dp92
g17
I00
sg18
I01
sg19
I00
sg20
I00
ssg21
I2
sg22
(dp93
g17
I01
sg18
I00
ssbS'1:drawer'
p94
s(itask_sim.amdp_plan_action
AMDPPlanAction
p95
(dp96
g3
g4
(g5
g6
Ntp97
Rp98
(lp99
I0
aS'apple'
p100
ag4
(g11
g6
Ntp101
Rp102
(lp103
F0.0
aF0.0
aF0.0
ababsg15
(dp104
g17
I00
sg18
I00
sg19
I00
sg20
I00
ssg21
I2
sg22
(dp105
sbS'0:apple-f'
p106
s(itask_sim.amdp_plan_action
AMDPPlanAction
p107
(dp108
g3
g4
(g5
g6
Ntp109
Rp110
(lp111
I4
ag64
ag4
(g11
g6
Ntp112
Rp113
(lp114
F0.0
aF0.0
aF0.0
ababsg15
(dp115
g17
I01
sg18
I00
sg19
I00
sg20
I00
ssg21
I2
sg22
(dp116
sbS'4:r-f'
p117
s(itask_sim.amdp_plan_action
AMDPPlanAction
p118
(dp119
g3
g4
(g5
g6
Ntp120
Rp121
(lp122
I4
ag64
ag4
(g11
g6
Ntp123
Rp124
(lp125
F0.0
aF0.0
aF0.0
ababsg15
(dp126
g17
I00
sg18
I00
sg19
I00
sg20
I00
ssg21
I2
sg22
(dp127
sbS'4:r-f'
p128
s(itask_sim.amdp_plan_action
AMDPPlanAction
p129
(dp130
g3
g4
(g5
g6
Ntp131
Rp132
(lp133
I4
aS'fr'
p134
ag4
(g11
g6
Ntp135
Rp136
(lp137
F0.0
aF0.0
aF0.0
ababsg15
(dp138
g17
I00
sg18
I00
sg19
I00
sg20
I00
ssg21
I2
sg22
(dp139
sbS'4:fr-f'
p140
s(itask_sim.amdp_plan_action
AMDPPlanAction
p141
(dp142
g3
g4
(g5
g6
Ntp143
Rp144
(lp145
I7
ag10
ag4
(g11
g6
Ntp146
Rp147
(lp148
F0.0
aF0.0
aF0.0
ababsg15
(dp149
g17
I00
sg18
I00
sg19
I01
sg20
I00
ssg21
I2
sg22
(dp150
sbS'7:-f'
p151
s(itask_sim.amdp_plan_action
AMDPPlanAction
p152
(dp153
g3
g4
(g5
g6
Ntp154
Rp155
(lp156
I5
ag10
ag4
(g11
g6
Ntp157
Rp158
(lp159
F0.0
aF0.0
aF0.0
ababsg15
(dp160
g17
I00
sg18
I00
sg19
I01
sg20
I00
ssg21
I2
sg22
(dp161
sbS'5:-f'
p162
s(itask_sim.amdp_plan_action
AMDPPlanAction
p163
(dp164
g3
g4
(g5
g6
Ntp165
Rp166
(lp167
I2
ag10
ag4
(g11
g6
Ntp168
Rp169
(lp170
F0.0
aF0.0
aF0.0
ababsg15
(dp171
g17
I00
sg18
I01
sg19
I00
sg20
I00
ssg21
I2
sg22
(dp172
g17
I01
sg18
I00
ssbS'2:'
p173
s(itask_sim.amdp_plan_action
AMDPPlanAction
p174
(dp175
g3
g4
(g5
g6
Ntp176
Rp177
(lp178
I0
aS'drawer'
p179
ag4
(g11
g6
Ntp180
Rp181
(lp182
F0.0
aF0.0
aF0.0
ababsg15
(dp183
g17
I00
sg18
I00
sg19
I01
sg20
I00
ssg21
I2
sg22
(dp184
g20
I01
ssbS'0:drawer'
p185
s(itask_sim.amdp_plan_action
AMDPPlanAction
p186
(dp187
g3
g4
(g5
g6
Ntp188
Rp189
(lp190
I4
ag64
ag4
(g11
g6
Ntp191
Rp192
(lp193
F0.0
aF0.0
aF0.0
ababsg15
(dp194
g17
I00
sg18
I00
sg19
I00
sg20
I01
ssg21
I2
sg22
(dp195
sbS'4:r-f'
p196
s(itask_sim.amdp_plan_action
AMDPPlanAction
p197
(dp198
g3
g4
(g5
g6
Ntp199
Rp200
(lp201
I1
ag88
ag4
(g11
g6
Ntp202
Rp203
(lp204
F0.0
aF0.0
aF0.0
ababsg15
(dp205
g17
I00
sg18
I01
sg19
I00
sg20
I00
ssg21
I2
sg22
(dp206
sbS'1:drawer-f'
p207
s(itask_sim.amdp_plan_action
AMDPPlanAction
p208
(dp209
g3
g4
(g5
g6
Ntp210
Rp211
(lp212
I5
ag10
ag4
(g11
g6
Ntp213
Rp214
(lp215
F0.0
aF0.0
aF0.0
ababsg15
(dp216
g17
I00
sg18
I01
sg19
I01
sg20
I00
ssg21
I2
sg22
(dp217
sbS'5:-f'
p218
sS'start'
p219
g219
s(itask_sim.amdp_plan_action
AMDPPlanAction
p220
(dp221
g3
g4
(g5
g6
Ntp222
Rp223
(lp224
I4
ag88
ag4
(g11
g6
Ntp225
Rp226
(lp227
F0.0
aF0.0
aF0.0
ababsg15
(dp228
g17
I00
sg18
I01
sg19
I00
sg20
I00
ssg21
I2
sg22
(dp229
sbS'4:drawer-f'
p230
s(itask_sim.amdp_plan_action
AMDPPlanAction
p231
(dp232
g3
g4
(g5
g6
Ntp233
Rp234
(lp235
I4
aS'stack'
p236
ag4
(g11
g6
Ntp237
Rp238
(lp239
F0.0
aF0.0
aF0.0
ababsg15
(dp240
g17
I01
sg18
I00
sg19
I00
sg20
I00
ssg21
I2
sg22
(dp241
g19
I01
ssbS'4:stack'
p242
s(itask_sim.amdp_plan_action
AMDPPlanAction
p243
(dp244
g3
g4
(g5
g6
Ntp245
Rp246
(lp247
I4
ag236
ag4
(g11
g6
Ntp248
Rp249
(lp250
F0.0
aF0.0
aF0.0
ababsg15
(dp251
g17
I00
sg18
I01
sg19
I01
sg20
I00
ssg21
I2
sg22
(dp252
sbS'4:stack-f'
p253
s(itask_sim.amdp_plan_action
AMDPPlanAction
p254
(dp255
g3
g4
(g5
g6
Ntp256
Rp257
(lp258
I4
aS'b'
p259
ag4
(g11
g6
Ntp260
Rp261
(lp262
F0.0
aF0.0
aF0.0
ababsg15
(dp263
g17
I00
sg18
I00
sg19
I00
sg20
I00
ssg21
I2
sg22
(dp264
sbS'4:b-f'
p265
s(itask_sim.amdp_plan_action
AMDPPlanAction
p266
(dp267
g3
g4
(g5
g6
Ntp268
Rp269
(lp270
I4
aS'br'
p271
ag4
(g11
g6
Ntp272
Rp273
(lp274
F0.0
aF0.0
aF0.0
ababsg15
(dp275
g17
I00
sg18
I00
sg19
I01
sg20
I01
ssg21
I2
sg22
(dp276
g19
I00
ssbS'4:br'
p277
s(itask_sim.amdp_plan_action
AMDPPlanAction
p278
(dp279
g3
g4
(g5
g6
Ntp280
Rp281
(lp282
I6
ag10
ag4
(g11
g6
Ntp283
Rp284
(lp285
F0.0
aF0.0
aF0.0
ababsg15
(dp286
g17
I00
sg18
I00
sg19
I00
sg20
I00
ssg21
I2
sg22
(dp287
sbS'6:-f'
p288
s(itask_sim.amdp_plan_action
AMDPPlanAction
p289
(dp290
g3
g4
(g5
g6
Ntp291
Rp292
(lp293
I4
ag134
ag4
(g11
g6
Ntp294
Rp295
(lp296
F0.0
aF0.0
aF0.0
ababsg15
(dp297
g17
I00
sg18
I00
sg19
I01
sg20
I01
ssg21
I2
sg22
(dp298
g19
I00
ssbS'4:fr'
p299
s(itask_sim.amdp_plan_action
AMDPPlanAction
p300
(dp301
g3
g4
(g5
g6
Ntp302
Rp303
(lp304
I2
ag10
ag4
(g11
g6
Ntp305
Rp306
(lp307
F0.0
aF0.0
aF0.0
ababsg15
(dp308
g17
I00
sg18
I00
sg19
I00
sg20
I01
ssg21
I2
sg22
(dp309
g20
I00
ssbS'2:'
p310
s(itask_sim.amdp_plan_action
AMDPPlanAction
p311
(dp312
g3
g4
(g5
g6
Ntp313
Rp314
(lp315
I1
ag236
ag4
(g11
g6
Ntp316
Rp317
(lp318
F0.0
aF0.0
aF0.0
ababsg15
(dp319
g17
I00
sg18
I01
sg19
I01
sg20
I00
ssg21
I2
sg22
(dp320
g18
I00
ssbS'1:stack'
p321
s(itask_sim.amdp_plan_action
AMDPPlanAction
p322
(dp323
g3
g4
(g5
g6
Ntp324
Rp325
(lp326
I4
ag236
ag4
(g11
g6
Ntp327
Rp328
(lp329
F0.0
aF0.0
aF0.0
ababsg15
(dp330
g17
I01
sg18
I00
sg19
I00
sg20
I01
ssg21
I2
sg22
(dp331
g19
I01
ssbS'4:stack'
p332
s(itask_sim.amdp_plan_action
AMDPPlanAction
p333
(dp334
g3
g4
(g5
g6
Ntp335
Rp336
(lp337
I2
ag10
ag4
(g11
g6
Ntp338
Rp339
(lp340
F0.0
aF0.0
aF0.0
ababsg15
(dp341
g17
I00
sg18
I01
sg19
I01
sg20
I00
ssg21
I2
sg22
(dp342
g18
I00
ssbS'2:'
p343
s(itask_sim.amdp_plan_action
AMDPPlanAction
p344
(dp345
g3
g4
(g5
g6
Ntp346
Rp347
(lp348
I2
ag10
ag4
(g11
g6
Ntp349
Rp350
(lp351
F0.0
aF0.0
aF0.0
ababsg15
(dp352
g17
I01
sg18
I00
sg19
I01
sg20
I01
ssg21
I2
sg22
(dp353
g20
I00
ssbS'2:'
p354
s(itask_sim.amdp_plan_action
AMDPPlanAction
p355
(dp356
g3
g4
(g5
g6
Ntp357
Rp358
(lp359
I2
ag10
ag4
(g11
g6
Ntp360
Rp361
(lp362
F0.0
aF0.0
aF0.0
ababsg15
(dp363
g17
I01
sg18
I00
sg19
I00
sg20
I01
ssg21
I2
sg22
(dp364
g20
I00
ssbS'2:'
p365
s(itask_sim.amdp_plan_action
AMDPPlanAction
p366
(dp367
g3
g4
(g5
g6
Ntp368
Rp369
(lp370
I0
aS'drawer'
p371
ag4
(g11
g6
Ntp372
Rp373
(lp374
F0.0
aF0.0
aF0.0
ababsg15
(dp375
g17
I00
sg18
I00
sg19
I01
sg20
I00
ssg21
I2
sg22
(dp376
sbS'0:drawer-f'
p377
s(itask_sim.amdp_plan_action
AMDPPlanAction
p378
(dp379
g3
g4
(g5
g6
Ntp380
Rp381
(lp382
I4
aS'fl'
p383
ag4
(g11
g6
Ntp384
Rp385
(lp386
F0.0
aF0.0
aF0.0
ababsg15
(dp387
g17
I01
sg18
I00
sg19
I00
sg20
I01
ssg21
I2
sg22
(dp388
sbS'4:fl-f'
p389
s(itask_sim.amdp_plan_action
AMDPPlanAction
p390
(dp391
g3
g4
(g5
g6
Ntp392
Rp393
(lp394
I0
aS'apple'
p395
ag4
(g11
g6
Ntp396
Rp397
(lp398
F0.0
aF0.0
aF0.0
ababsg15
(dp399
g17
I00
sg18
I00
sg19
I00
sg20
I00
ssg21
I2
sg22
(dp400
g18
I01
ssbS'0:apple'
p401
s(itask_sim.amdp_plan_action
AMDPPlanAction
p402
(dp403
g3
g4
(g5
g6
Ntp404
Rp405
(lp406
I5
ag10
ag4
(g11
g6
Ntp407
Rp408
(lp409
F0.0
aF0.0
aF0.0
ababsg15
(dp410
g17
I01
sg18
I00
sg19
I00
sg20
I00
ssg21
I2
sg22
(dp411
sbS'5:-f'
p412
s(itask_sim.amdp_plan_action
AMDPPlanAction
p413
(dp414
g3
g4
(g5
g6
Ntp415
Rp416
(lp417
I4
ag64
ag4
(g11
g6
Ntp418
Rp419
(lp420
F0.0
aF0.0
aF0.0
ababsg15
(dp421
g17
I00
sg18
I00
sg19
I00
sg20
I00
ssg21
I2
sg22
(dp422
g17
I01
ssbS'4:r'
p423
s(itask_sim.amdp_plan_action
AMDPPlanAction
p424
(dp425
g3
g4
(g5
g6
Ntp426
Rp427
(lp428
I4
aS'bl'
p429
ag4
(g11
g6
Ntp430
Rp431
(lp432
F0.0
aF0.0
aF0.0
ababsg15
(dp433
g17
I00
sg18
I00
sg19
I01
sg20
I00
ssg21
I2
sg22
(dp434
sbS'4:bl-f'
p435
s(itask_sim.amdp_plan_action
AMDPPlanAction
p436
(dp437
g3
g4
(g5
g6
Ntp438
Rp439
(lp440
I0
aS'drawer'
p441
ag4
(g11
g6
Ntp442
Rp443
(lp444
F0.0
aF0.0
aF0.0
ababsg15
(dp445
g17
I01
sg18
I00
sg19
I00
sg20
I00
ssg21
I2
sg22
(dp446
g20
I01
ssbS'0:drawer'
p447
s(itask_sim.amdp_plan_action
AMDPPlanAction
p448
(dp449
g3
g4
(g5
g6
Ntp450
Rp451
(lp452
I4
ag236
ag4
(g11
g6
Ntp453
Rp454
(lp455
F0.0
aF0.0
aF0.0
ababsg15
(dp456
g17
I00
sg18
I00
sg19
I01
sg20
I01
ssg21
I2
sg22
(dp457
sbS'4:stack-f'
p458
s(itask_sim.amdp_plan_action
AMDPPlanAction
p459
(dp460
g3
g4
(g5
g6
Ntp461
Rp462
(lp463
I0
aS'apple'
p464
ag4
(g11
g6
Ntp465
Rp466
(lp467
F0.0
aF0.0
aF0.0
ababsg15
(dp468
g17
I00
sg18
I00
sg19
I00
sg20
I01
ssg21
I2
sg22
(dp469
g20
I00
ssbS'0:apple'
p470
s(itask_sim.amdp_plan_action
AMDPPlanAction
p471
(dp472
g3
g4
(g5
g6
Ntp473
Rp474
(lp475
I3
ag10
ag4
(g11
g6
Ntp476
Rp477
(lp478
F0.0
aF0.0
aF0.0
ababsg15
(dp479
g17
I00
sg18
I00
sg19
I00
sg20
I00
ssg21
I2
sg22
(dp480
g18
I01
ssbS'3:'
p481
s(itask_sim.amdp_plan_action
AMDPPlanAction
p482
(dp483
g3
g4
(g5
g6
Ntp484
Rp485
(lp486
I4
ag236
ag4
(g11
g6
Ntp487
Rp488
(lp489
F0.0
aF0.0
aF0.0
ababsg15
(dp490
g17
I00
sg18
I00
sg19
I00
sg20
I00
ssg21
I2
sg22
(dp491
sbS'4:stack-f'
p492
s.