(dp0
(itask_sim.amdp_plan_action
AMDPPlanAction
p1
(dp2
S'action_object'
p3
S'r'
p4
sS'preconditions'
p5
(dp6
S'gripper_holding_drawer'
p7
I01
sS'drawer_closing_stack'
p8
I01
ssS'amdp_id'
p9
I0
sS'action_type'
p10
I4
sS'effects'
p11
(dp12
g8
I00
ssbS'4:r'
p13
s(itask_sim.amdp_plan_action
AMDPPlanAction
p14
(dp15
g3
S'stack'
p16
sg5
(dp17
g7
I00
sg8
I01
ssg9
I0
sg10
I1
sg11
(dp18
sbS'1:stack-f'
p19
s(itask_sim.amdp_plan_action
AMDPPlanAction
p20
(dp21
g3
S'drawer'
p22
sg5
(dp23
g7
I00
sg8
I00
ssg9
I0
sg10
I1
sg11
(dp24
sbS'1:drawer-f'
p25
s(itask_sim.amdp_plan_action
AMDPPlanAction
p26
(dp27
g3
S'fl'
p28
sg5
(dp29
g7
I01
sg8
I00
ssg9
I0
sg10
I4
sg11
(dp30
sbS'4:fl-f'
p31
s(itask_sim.amdp_plan_action
AMDPPlanAction
p32
(dp33
g3
S''
p34
sg5
(dp35
g7
I01
sg8
I00
ssg9
I0
sg10
I2
sg11
(dp36
g7
I00
ssbS'2:'
p37
s(itask_sim.amdp_plan_action
AMDPPlanAction
p38
(dp39
g3
S'drawer'
p40
sg5
(dp41
g7
I00
sg8
I01
ssg9
I0
sg10
I0
sg11
(dp42
g7
I01
ssbS'0:drawer'
p43
s(itask_sim.amdp_plan_action
AMDPPlanAction
p44
(dp45
g3
g16
sg5
(dp46
g7
I00
sg8
I01
ssg9
I0
sg10
I4
sg11
(dp47
sbS'4:stack-f'
p48
s(itask_sim.amdp_plan_action
AMDPPlanAction
p49
(dp50
g3
g34
sg5
(dp51
g7
I00
sg8
I00
ssg9
I0
sg10
I3
sg11
(dp52
sbS'3:-f'
p53
s(itask_sim.amdp_plan_action
AMDPPlanAction
p54
(dp55
g3
g34
sg5
(dp56
g7
I01
sg8
I01
ssg9
I0
sg10
I2
sg11
(dp57
g7
I00
ssbS'2:'
p58
s(itask_sim.amdp_plan_action
AMDPPlanAction
p59
(dp60
g3
g34
sg5
(dp61
g7
I00
sg8
I01
ssg9
I0
sg10
I2
sg11
(dp62
sbS'2:-f'
p63
s(itask_sim.amdp_plan_action
AMDPPlanAction
p64
(dp65
g3
g34
sg5
(dp66
g7
I00
sg8
I00
ssg9
I0
sg10
I5
sg11
(dp67
sbS'5:-f'
p68
s(itask_sim.amdp_plan_action
AMDPPlanAction
p69
(dp70
g3
S'apple'
p71
sg5
(dp72
g7
I00
sg8
I01
ssg9
I0
sg10
I0
sg11
(dp73
sbS'0:apple-f'
p74
sS'start'
p75
g75
s(itask_sim.amdp_plan_action
AMDPPlanAction
p76
(dp77
g3
S'br'
p78
sg5
(dp79
g7
I01
sg8
I01
ssg9
I0
sg10
I4
sg11
(dp80
g8
I00
ssbS'4:br'
p81
s(itask_sim.amdp_plan_action
AMDPPlanAction
p82
(dp83
g3
g4
sg5
(dp84
g7
I00
sg8
I00
ssg9
I0
sg10
I4
sg11
(dp85
sbS'4:r-f'
p86
s(itask_sim.amdp_plan_action
AMDPPlanAction
p87
(dp88
g3
g16
sg5
(dp89
g7
I01
sg8
I00
ssg9
I0
sg10
I4
sg11
(dp90
g8
I01
ssbS'4:stack'
p91
s(itask_sim.amdp_plan_action
AMDPPlanAction
p92
(dp93
g3
g4
sg5
(dp94
g7
I01
sg8
I00
ssg9
I0
sg10
I4
sg11
(dp95
sbS'4:r-f'
p96
s(itask_sim.amdp_plan_action
AMDPPlanAction
p97
(dp98
g3
g34
sg5
(dp99
g7
I00
sg8
I00
ssg9
I0
sg10
I2
sg11
(dp100
sbS'2:-f'
p101
s(itask_sim.amdp_plan_action
AMDPPlanAction
p102
(dp103
g3
S'drawer'
p104
sg5
(dp105
g7
I00
sg8
I01
ssg9
I0
sg10
I0
sg11
(dp106
sbS'0:drawer-f'
p107
s(itask_sim.amdp_plan_action
AMDPPlanAction
p108
(dp109
g3
g34
sg5
(dp110
g7
I00
sg8
I00
ssg9
I0
sg10
I6
sg11
(dp111
sbS'6:-f'
p112
s(itask_sim.amdp_plan_action
AMDPPlanAction
p113
(dp114
g3
S'apple'
p115
sg5
(dp116
g7
I01
sg8
I00
ssg9
I0
sg10
I0
sg11
(dp117
g7
I00
ssbS'0:apple'
p118
s(itask_sim.amdp_plan_action
AMDPPlanAction
p119
(dp120
g3
g22
sg5
(dp121
g7
I00
sg8
I00
ssg9
I0
sg10
I4
sg11
(dp122
sbS'4:drawer-f'
p123
s(itask_sim.amdp_plan_action
AMDPPlanAction
p124
(dp125
g3
g34
sg5
(dp126
g7
I00
sg8
I01
ssg9
I0
sg10
I5
sg11
(dp127
sbS'5:-f'
p128
s(itask_sim.amdp_plan_action
AMDPPlanAction
p129
(dp130
g3
g16
sg5
(dp131
g7
I00
sg8
I00
ssg9
I0
sg10
I4
sg11
(dp132
g8
I01
ssbS'4:stack'
p133
s(itask_sim.amdp_plan_action
AMDPPlanAction
p134
(dp135
g3
g16
sg5
(dp136
g7
I00
sg8
I00
ssg9
I0
sg10
I4
sg11
(dp137
sbS'4:stack-f'
p138
s(itask_sim.amdp_plan_action
AMDPPlanAction
p139
(dp140
g3
g16
sg5
(dp141
g7
I01
sg8
I01
ssg9
I0
sg10
I4
sg11
(dp142
sbS'4:stack-f'
p143
s(itask_sim.amdp_plan_action
AMDPPlanAction
p144
(dp145
g3
S'drawer'
p146
sg5
(dp147
g7
I00
sg8
I00
ssg9
I0
sg10
I0
sg11
(dp148
g7
I01
ssbS'0:drawer'
p149
s(itask_sim.amdp_plan_action
AMDPPlanAction
p150
(dp151
g3
S'bl'
p152
sg5
(dp153
g7
I00
sg8
I01
ssg9
I0
sg10
I4
sg11
(dp154
sbS'4:bl-f'
p155
s(itask_sim.amdp_plan_action
AMDPPlanAction
p156
(dp157
g3
S'b'
p158
sg5
(dp159
g7
I00
sg8
I00
ssg9
I0
sg10
I4
sg11
(dp160
sbS'4:b-f'
p161
s(itask_sim.amdp_plan_action
AMDPPlanAction
p162
(dp163
g3
S'apple'
p164
sg5
(dp165
g7
I00
sg8
I00
ssg9
I0
sg10
I0
sg11
(dp166
sbS'0:apple-f'
p167
s(itask_sim.amdp_plan_action
AMDPPlanAction
p168
(dp169
g3
g34
sg5
(dp170
g7
I00
sg8
I01
ssg9
I0
sg10
I7
sg11
(dp171
sbS'7:-f'
p172
s(itask_sim.amdp_plan_action
AMDPPlanAction
p173
(dp174
g3
S'fr'
p175
sg5
(dp176
g7
I01
sg8
I01
ssg9
I0
sg10
I4
sg11
(dp177
g8
I00
ssbS'4:fr'
p178
s(itask_sim.amdp_plan_action
AMDPPlanAction
p179
(dp180
g3
g175
sg5
(dp181
g7
I00
sg8
I00
ssg9
I0
sg10
I4
sg11
(dp182
sbS'4:fr-f'
p183
s.