(dp0
(itask_sim.amdp_plan_action
AMDPPlanAction
p1
(dp2
S'action_object'
p3
S''
p4
sS'preconditions'
p5
(dp6
S'apple_in_drawer'
p7
I01
sS'gripper_holding_apple'
p8
I00
sS'drawer_closing_stack'
p9
I00
sS'gripper_holding_drawer'
p10
I00
ssS'amdp_id'
p11
I2
sS'action_type'
p12
I6
sS'effects'
p13
(dp14
sbS'6:-f'
p15
s(itask_sim.amdp_plan_action
AMDPPlanAction
p16
(dp17
g3
g4
sg5
(dp18
g7
I00
sg8
I00
sg9
I00
sg10
I00
ssg11
I2
sg12
I5
sg13
(dp19
sbS'5:-f'
p20
s(itask_sim.amdp_plan_action
AMDPPlanAction
p21
(dp22
g3
S'apple'
p23
sg5
(dp24
g7
I00
sg8
I00
sg9
I01
sg10
I00
ssg11
I2
sg12
I0
sg13
(dp25
g8
I01
ssbS'0:apple'
p26
s(itask_sim.amdp_plan_action
AMDPPlanAction
p27
(dp28
g3
g4
sg5
(dp29
g7
I00
sg8
I01
sg9
I00
sg10
I00
ssg11
I2
sg12
I5
sg13
(dp30
sbS'5:-f'
p31
s(itask_sim.amdp_plan_action
AMDPPlanAction
p32
(dp33
g3
S'r'
p34
sg5
(dp35
g7
I00
sg8
I00
sg9
I01
sg10
I01
ssg11
I2
sg12
I4
sg13
(dp36
g9
I00
ssbS'4:r'
p37
s(itask_sim.amdp_plan_action
AMDPPlanAction
p38
(dp39
g3
S'apple'
p40
sg5
(dp41
g7
I00
sg8
I00
sg9
I00
sg10
I01
ssg11
I2
sg12
I0
sg13
(dp42
g10
I00
sg8
I01
ssbS'0:apple'
p43
s(itask_sim.amdp_plan_action
AMDPPlanAction
p44
(dp45
g3
S'drawer'
p46
sg5
(dp47
g7
I00
sg8
I01
sg9
I00
sg10
I00
ssg11
I2
sg12
I1
sg13
(dp48
g7
I01
sg8
I00
ssbS'1:drawer'
p49
s(itask_sim.amdp_plan_action
AMDPPlanAction
p50
(dp51
g3
S'apple'
p52
sg5
(dp53
g7
I00
sg8
I00
sg9
I00
sg10
I00
ssg11
I2
sg12
I0
sg13
(dp54
sbS'0:apple-f'
p55
s(itask_sim.amdp_plan_action
AMDPPlanAction
p56
(dp57
g3
g34
sg5
(dp58
g7
I01
sg8
I00
sg9
I00
sg10
I00
ssg11
I2
sg12
I4
sg13
(dp59
sbS'4:r-f'
p60
s(itask_sim.amdp_plan_action
AMDPPlanAction
p61
(dp62
g3
g34
sg5
(dp63
g7
I00
sg8
I00
sg9
I00
sg10
I00
ssg11
I2
sg12
I4
sg13
(dp64
sbS'4:r-f'
p65
s(itask_sim.amdp_plan_action
AMDPPlanAction
p66
(dp67
g3
S'fr'
p68
sg5
(dp69
g7
I00
sg8
I00
sg9
I00
sg10
I00
ssg11
I2
sg12
I4
sg13
(dp70
sbS'4:fr-f'
p71
s(itask_sim.amdp_plan_action
AMDPPlanAction
p72
(dp73
g3
g4
sg5
(dp74
g7
I00
sg8
I00
sg9
I01
sg10
I00
ssg11
I2
sg12
I7
sg13
(dp75
sbS'7:-f'
p76
s(itask_sim.amdp_plan_action
AMDPPlanAction
p77
(dp78
g3
g4
sg5
(dp79
g7
I00
sg8
I00
sg9
I01
sg10
I00
ssg11
I2
sg12
I5
sg13
(dp80
sbS'5:-f'
p81
s(itask_sim.amdp_plan_action
AMDPPlanAction
p82
(dp83
g3
g4
sg5
(dp84
g7
I00
sg8
I01
sg9
I00
sg10
I00
ssg11
I2
sg12
I2
sg13
(dp85
g7
I01
sg8
I00
ssbS'2:'
p86
s(itask_sim.amdp_plan_action
AMDPPlanAction
p87
(dp88
g3
S'drawer'
p89
sg5
(dp90
g7
I00
sg8
I00
sg9
I01
sg10
I00
ssg11
I2
sg12
I0
sg13
(dp91
g10
I01
ssbS'0:drawer'
p92
s(itask_sim.amdp_plan_action
AMDPPlanAction
p93
(dp94
g3
g34
sg5
(dp95
g7
I00
sg8
I00
sg9
I00
sg10
I01
ssg11
I2
sg12
I4
sg13
(dp96
sbS'4:r-f'
p97
s(itask_sim.amdp_plan_action
AMDPPlanAction
p98
(dp99
g3
g46
sg5
(dp100
g7
I00
sg8
I01
sg9
I00
sg10
I00
ssg11
I2
sg12
I1
sg13
(dp101
sbS'1:drawer-f'
p102
s(itask_sim.amdp_plan_action
AMDPPlanAction
p103
(dp104
g3
g4
sg5
(dp105
g7
I00
sg8
I01
sg9
I01
sg10
I00
ssg11
I2
sg12
I5
sg13
(dp106
sbS'5:-f'
p107
sS'start'
p108
g108
s(itask_sim.amdp_plan_action
AMDPPlanAction
p109
(dp110
g3
g46
sg5
(dp111
g7
I00
sg8
I01
sg9
I00
sg10
I00
ssg11
I2
sg12
I4
sg13
(dp112
sbS'4:drawer-f'
p113
s(itask_sim.amdp_plan_action
AMDPPlanAction
p114
(dp115
g3
S'stack'
p116
sg5
(dp117
g7
I01
sg8
I00
sg9
I00
sg10
I00
ssg11
I2
sg12
I4
sg13
(dp118
g9
I01
ssbS'4:stack'
p119
s(itask_sim.amdp_plan_action
AMDPPlanAction
p120
(dp121
g3
g116
sg5
(dp122
g7
I00
sg8
I01
sg9
I01
sg10
I00
ssg11
I2
sg12
I4
sg13
(dp123
sbS'4:stack-f'
p124
s(itask_sim.amdp_plan_action
AMDPPlanAction
p125
(dp126
g3
S'b'
p127
sg5
(dp128
g7
I00
sg8
I00
sg9
I00
sg10
I00
ssg11
I2
sg12
I4
sg13
(dp129
sbS'4:b-f'
p130
s(itask_sim.amdp_plan_action
AMDPPlanAction
p131
(dp132
g3
S'br'
p133
sg5
(dp134
g7
I00
sg8
I00
sg9
I01
sg10
I01
ssg11
I2
sg12
I4
sg13
(dp135
g9
I00
ssbS'4:br'
p136
s(itask_sim.amdp_plan_action
AMDPPlanAction
p137
(dp138
g3
g4
sg5
(dp139
g7
I00
sg8
I00
sg9
I00
sg10
I00
ssg11
I2
sg12
I6
sg13
(dp140
sbS'6:-f'
p141
s(itask_sim.amdp_plan_action
AMDPPlanAction
p142
(dp143
g3
g68
sg5
(dp144
g7
I00
sg8
I00
sg9
I01
sg10
I01
ssg11
I2
sg12
I4
sg13
(dp145
g9
I00
ssbS'4:fr'
p146
s(itask_sim.amdp_plan_action
AMDPPlanAction
p147
(dp148
g3
g4
sg5
(dp149
g7
I00
sg8
I00
sg9
I00
sg10
I01
ssg11
I2
sg12
I2
sg13
(dp150
g10
I00
ssbS'2:'
p151
s(itask_sim.amdp_plan_action
AMDPPlanAction
p152
(dp153
g3
g116
sg5
(dp154
g7
I00
sg8
I01
sg9
I01
sg10
I00
ssg11
I2
sg12
I1
sg13
(dp155
g8
I00
ssbS'1:stack'
p156
s(itask_sim.amdp_plan_action
AMDPPlanAction
p157
(dp158
g3
g116
sg5
(dp159
g7
I01
sg8
I00
sg9
I00
sg10
I01
ssg11
I2
sg12
I4
sg13
(dp160
g9
I01
ssbS'4:stack'
p161
s(itask_sim.amdp_plan_action
AMDPPlanAction
p162
(dp163
g3
g4
sg5
(dp164
g7
I00
sg8
I01
sg9
I01
sg10
I00
ssg11
I2
sg12
I2
sg13
(dp165
g8
I00
ssbS'2:'
p166
s(itask_sim.amdp_plan_action
AMDPPlanAction
p167
(dp168
g3
g4
sg5
(dp169
g7
I01
sg8
I00
sg9
I01
sg10
I01
ssg11
I2
sg12
I2
sg13
(dp170
g10
I00
ssbS'2:'
p171
s(itask_sim.amdp_plan_action
AMDPPlanAction
p172
(dp173
g3
g4
sg5
(dp174
g7
I01
sg8
I00
sg9
I00
sg10
I01
ssg11
I2
sg12
I2
sg13
(dp175
g10
I00
ssbS'2:'
p176
s(itask_sim.amdp_plan_action
AMDPPlanAction
p177
(dp178
g3
S'drawer'
p179
sg5
(dp180
g7
I00
sg8
I00
sg9
I01
sg10
I00
ssg11
I2
sg12
I0
sg13
(dp181
sbS'0:drawer-f'
p182
s(itask_sim.amdp_plan_action
AMDPPlanAction
p183
(dp184
g3
S'fl'
p185
sg5
(dp186
g7
I01
sg8
I00
sg9
I00
sg10
I01
ssg11
I2
sg12
I4
sg13
(dp187
sbS'4:fl-f'
p188
s(itask_sim.amdp_plan_action
AMDPPlanAction
p189
(dp190
g3
S'apple'
p191
sg5
(dp192
g7
I00
sg8
I00
sg9
I00
sg10
I00
ssg11
I2
sg12
I0
sg13
(dp193
g8
I01
ssbS'0:apple'
p194
s(itask_sim.amdp_plan_action
AMDPPlanAction
p195
(dp196
g3
g4
sg5
(dp197
g7
I01
sg8
I00
sg9
I00
sg10
I00
ssg11
I2
sg12
I5
sg13
(dp198
sbS'5:-f'
p199
s(itask_sim.amdp_plan_action
AMDPPlanAction
p200
(dp201
g3
g34
sg5
(dp202
g7
I00
sg8
I00
sg9
I00
sg10
I00
ssg11
I2
sg12
I4
sg13
(dp203
g7
I01
ssbS'4:r'
p204
s(itask_sim.amdp_plan_action
AMDPPlanAction
p205
(dp206
g3
S'bl'
p207
sg5
(dp208
g7
I00
sg8
I00
sg9
I01
sg10
I00
ssg11
I2
sg12
I4
sg13
(dp209
sbS'4:bl-f'
p210
s(itask_sim.amdp_plan_action
AMDPPlanAction
p211
(dp212
g3
S'drawer'
p213
sg5
(dp214
g7
I01
sg8
I00
sg9
I00
sg10
I00
ssg11
I2
sg12
I0
sg13
(dp215
g10
I01
ssbS'0:drawer'
p216
s(itask_sim.amdp_plan_action
AMDPPlanAction
p217
(dp218
g3
g116
sg5
(dp219
g7
I00
sg8
I00
sg9
I01
sg10
I01
ssg11
I2
sg12
I4
sg13
(dp220
sbS'4:stack-f'
p221
s(itask_sim.amdp_plan_action
AMDPPlanAction
p222
(dp223
g3
S'apple'
p224
sg5
(dp225
g7
I00
sg8
I00
sg9
I00
sg10
I01
ssg11
I2
sg12
I0
sg13
(dp226
g10
I00
ssbS'0:apple'
p227
s(itask_sim.amdp_plan_action
AMDPPlanAction
p228
(dp229
g3
g4
sg5
(dp230
g7
I00
sg8
I00
sg9
I00
sg10
I00
ssg11
I2
sg12
I3
sg13
(dp231
g8
I01
ssbS'3:'
p232
s(itask_sim.amdp_plan_action
AMDPPlanAction
p233
(dp234
g3
g116
sg5
(dp235
g7
I00
sg8
I00
sg9
I00
sg10
I00
ssg11
I2
sg12
I4
sg13
(dp236
sbS'4:stack-f'
p237
s.