(dp0
(itask_sim.amdp_plan_action
AMDPPlanAction
p1
(dp2
S'action'
p3
ccopy_reg
_reconstructor
p4
(ctmpD8rGAn
_task_sim__Action
p5
c__builtin__
object
p6
Ntp7
Rp8
(lp9
I4
aS'r'
p10
ag4
(cgeometry_msgs.msg._Point
Point
p11
g6
Ntp12
Rp13
(lp14
F0.0
aF0.0
aF0.0
ababsS'preconditions'
p15
(dp16
S'gripper_holding_drawer'
p17
I01
sS'drawer_closing_stack'
p18
I01
ssS'amdp_id'
p19
I0
sS'effects'
p20
(dp21
g18
I00
ssbS'4:r'
p22
s(itask_sim.amdp_plan_action
AMDPPlanAction
p23
(dp24
g3
g4
(g5
g6
Ntp25
Rp26
(lp27
I1
aS'stack'
p28
ag4
(g11
g6
Ntp29
Rp30
(lp31
F0.0
aF0.0
aF0.0
ababsg15
(dp32
g17
I00
sg18
I01
ssg19
I0
sg20
(dp33
sbS'1:stack-f'
p34
s(itask_sim.amdp_plan_action
AMDPPlanAction
p35
(dp36
g3
g4
(g5
g6
Ntp37
Rp38
(lp39
I1
aS'drawer'
p40
ag4
(g11
g6
Ntp41
Rp42
(lp43
F0.0
aF0.0
aF0.0
ababsg15
(dp44
g17
I00
sg18
I00
ssg19
I0
sg20
(dp45
sbS'1:drawer-f'
p46
s(itask_sim.amdp_plan_action
AMDPPlanAction
p47
(dp48
g3
g4
(g5
g6
Ntp49
Rp50
(lp51
I4
aS'fl'
p52
ag4
(g11
g6
Ntp53
Rp54
(lp55
F0.0
aF0.0
aF0.0
ababsg15
(dp56
g17
I01
sg18
I00
ssg19
I0
sg20
(dp57
sbS'4:fl-f'
p58
s(itask_sim.amdp_plan_action
AMDPPlanAction
p59
(dp60
g3
g4
(g5
g6
Ntp61
Rp62
(lp63
I2
aS''
p64
ag4
(g11
g6
Ntp65
Rp66
(lp67
F0.0
aF0.0
aF0.0
ababsg15
(dp68
g17
I01
sg18
I00
ssg19
I0
sg20
(dp69
g17
I00
ssbS'2:'
p70
s(itask_sim.amdp_plan_action
AMDPPlanAction
p71
(dp72
g3
g4
(g5
g6
Ntp73
Rp74
(lp75
I0
aS'drawer'
p76
ag4
(g11
g6
Ntp77
Rp78
(lp79
F0.0
aF0.0
aF0.0
ababsg15
(dp80
g17
I00
sg18
I01
ssg19
I0
sg20
(dp81
g17
I01
ssbS'0:drawer'
p82
s(itask_sim.amdp_plan_action
AMDPPlanAction
p83
(dp84
g3
g4
(g5
g6
Ntp85
Rp86
(lp87
I4
ag28
ag4
(g11
g6
Ntp88
Rp89
(lp90
F0.0
aF0.0
aF0.0
ababsg15
(dp91
g17
I00
sg18
I01
ssg19
I0
sg20
(dp92
sbS'4:stack-f'
p93
s(itask_sim.amdp_plan_action
AMDPPlanAction
p94
(dp95
g3
g4
(g5
g6
Ntp96
Rp97
(lp98
I3
ag64
ag4
(g11
g6
Ntp99
Rp100
(lp101
F0.0
aF0.0
aF0.0
ababsg15
(dp102
g17
I00
sg18
I00
ssg19
I0
sg20
(dp103
sbS'3:-f'
p104
s(itask_sim.amdp_plan_action
AMDPPlanAction
p105
(dp106
g3
g4
(g5
g6
Ntp107
Rp108
(lp109
I2
ag64
ag4
(g11
g6
Ntp110
Rp111
(lp112
F0.0
aF0.0
aF0.0
ababsg15
(dp113
g17
I01
sg18
I01
ssg19
I0
sg20
(dp114
g17
I00
ssbS'2:'
p115
s(itask_sim.amdp_plan_action
AMDPPlanAction
p116
(dp117
g3
g4
(g5
g6
Ntp118
Rp119
(lp120
I2
ag64
ag4
(g11
g6
Ntp121
Rp122
(lp123
F0.0
aF0.0
aF0.0
ababsg15
(dp124
g17
I00
sg18
I01
ssg19
I0
sg20
(dp125
sbS'2:-f'
p126
s(itask_sim.amdp_plan_action
AMDPPlanAction
p127
(dp128
g3
g4
(g5
g6
Ntp129
Rp130
(lp131
I5
ag64
ag4
(g11
g6
Ntp132
Rp133
(lp134
F0.0
aF0.0
aF0.0
ababsg15
(dp135
g17
I00
sg18
I00
ssg19
I0
sg20
(dp136
sbS'5:-f'
p137
s(itask_sim.amdp_plan_action
AMDPPlanAction
p138
(dp139
g3
g4
(g5
g6
Ntp140
Rp141
(lp142
I0
aS'apple'
p143
ag4
(g11
g6
Ntp144
Rp145
(lp146
F0.0
aF0.0
aF0.0
ababsg15
(dp147
g17
I00
sg18
I01
ssg19
I0
sg20
(dp148
sbS'0:apple-f'
p149
sS'start'
p150
g150
s(itask_sim.amdp_plan_action
AMDPPlanAction
p151
(dp152
g3
g4
(g5
g6
Ntp153
Rp154
(lp155
I4
aS'br'
p156
ag4
(g11
g6
Ntp157
Rp158
(lp159
F0.0
aF0.0
aF0.0
ababsg15
(dp160
g17
I01
sg18
I01
ssg19
I0
sg20
(dp161
g18
I00
ssbS'4:br'
p162
s(itask_sim.amdp_plan_action
AMDPPlanAction
p163
(dp164
g3
g4
(g5
g6
Ntp165
Rp166
(lp167
I4
ag10
ag4
(g11
g6
Ntp168
Rp169
(lp170
F0.0
aF0.0
aF0.0
ababsg15
(dp171
g17
I00
sg18
I00
ssg19
I0
sg20
(dp172
sbS'4:r-f'
p173
s(itask_sim.amdp_plan_action
AMDPPlanAction
p174
(dp175
g3
g4
(g5
g6
Ntp176
Rp177
(lp178
I4
ag28
ag4
(g11
g6
Ntp179
Rp180
(lp181
F0.0
aF0.0
aF0.0
ababsg15
(dp182
g17
I01
sg18
I00
ssg19
I0
sg20
(dp183
g18
I01
ssbS'4:stack'
p184
s(itask_sim.amdp_plan_action
AMDPPlanAction
p185
(dp186
g3
g4
(g5
g6
Ntp187
Rp188
(lp189
I4
ag10
ag4
(g11
g6
Ntp190
Rp191
(lp192
F0.0
aF0.0
aF0.0
ababsg15
(dp193
g17
I01
sg18
I00
ssg19
I0
sg20
(dp194
sbS'4:r-f'
p195
s(itask_sim.amdp_plan_action
AMDPPlanAction
p196
(dp197
g3
g4
(g5
g6
Ntp198
Rp199
(lp200
I2
ag64
ag4
(g11
g6
Ntp201
Rp202
(lp203
F0.0
aF0.0
aF0.0
ababsg15
(dp204
g17
I00
sg18
I00
ssg19
I0
sg20
(dp205
sbS'2:-f'
p206
s(itask_sim.amdp_plan_action
AMDPPlanAction
p207
(dp208
g3
g4
(g5
g6
Ntp209
Rp210
(lp211
I0
aS'drawer'
p212
ag4
(g11
g6
Ntp213
Rp214
(lp215
F0.0
aF0.0
aF0.0
ababsg15
(dp216
g17
I00
sg18
I01
ssg19
I0
sg20
(dp217
sbS'0:drawer-f'
p218
s(itask_sim.amdp_plan_action
AMDPPlanAction
p219
(dp220
g3
g4
(g5
g6
Ntp221
Rp222
(lp223
I6
ag64
ag4
(g11
g6
Ntp224
Rp225
(lp226
F0.0
aF0.0
aF0.0
ababsg15
(dp227
g17
I00
sg18
I00
ssg19
I0
sg20
(dp228
sbS'6:-f'
p229
s(itask_sim.amdp_plan_action
AMDPPlanAction
p230
(dp231
g3
g4
(g5
g6
Ntp232
Rp233
(lp234
I0
aS'apple'
p235
ag4
(g11
g6
Ntp236
Rp237
(lp238
F0.0
aF0.0
aF0.0
ababsg15
(dp239
g17
I01
sg18
I00
ssg19
I0
sg20
(dp240
g17
I00
ssbS'0:apple'
p241
s(itask_sim.amdp_plan_action
AMDPPlanAction
p242
(dp243
g3
g4
(g5
g6
Ntp244
Rp245
(lp246
I4
ag40
ag4
(g11
g6
Ntp247
Rp248
(lp249
F0.0
aF0.0
aF0.0
ababsg15
(dp250
g17
I00
sg18
I00
ssg19
I0
sg20
(dp251
sbS'4:drawer-f'
p252
s(itask_sim.amdp_plan_action
AMDPPlanAction
p253
(dp254
g3
g4
(g5
g6
Ntp255
Rp256
(lp257
I5
ag64
ag4
(g11
g6
Ntp258
Rp259
(lp260
F0.0
aF0.0
aF0.0
ababsg15
(dp261
g17
I00
sg18
I01
ssg19
I0
sg20
(dp262
sbS'5:-f'
p263
s(itask_sim.amdp_plan_action
AMDPPlanAction
p264
(dp265
g3
g4
(g5
g6
Ntp266
Rp267
(lp268
I4
ag28
ag4
(g11
g6
Ntp269
Rp270
(lp271
F0.0
aF0.0
aF0.0
ababsg15
(dp272
g17
I00
sg18
I00
ssg19
I0
sg20
(dp273
g18
I01
ssbS'4:stack'
p274
s(itask_sim.amdp_plan_action
AMDPPlanAction
p275
(dp276
g3
g4
(g5
g6
Ntp277
Rp278
(lp279
I4
ag28
ag4
(g11
g6
Ntp280
Rp281
(lp282
F0.0
aF0.0
aF0.0
ababsg15
(dp283
g17
I00
sg18
I00
ssg19
I0
sg20
(dp284
sbS'4:stack-f'
p285
s(itask_sim.amdp_plan_action
AMDPPlanAction
p286
(dp287
g3
g4
(g5
g6
Ntp288
Rp289
(lp290
I4
ag28
ag4
(g11
g6
Ntp291
Rp292
(lp293
F0.0
aF0.0
aF0.0
ababsg15
(dp294
g17
I01
sg18
I01
ssg19
I0
sg20
(dp295
sbS'4:stack-f'
p296
s(itask_sim.amdp_plan_action
AMDPPlanAction
p297
(dp298
g3
g4
(g5
g6
Ntp299
Rp300
(lp301
I0
aS'drawer'
p302
ag4
(g11
g6
Ntp303
Rp304
(lp305
F0.0
aF0.0
aF0.0
ababsg15
(dp306
g17
I00
sg18
I00
ssg19
I0
sg20
(dp307
g17
I01
ssbS'0:drawer'
p308
s(itask_sim.amdp_plan_action
AMDPPlanAction
p309
(dp310
g3
g4
(g5
g6
Ntp311
Rp312
(lp313
I4
aS'bl'
p314
ag4
(g11
g6
Ntp315
Rp316
(lp317
F0.0
aF0.0
aF0.0
ababsg15
(dp318
g17
I00
sg18
I01
ssg19
I0
sg20
(dp319
sbS'4:bl-f'
p320
s(itask_sim.amdp_plan_action
AMDPPlanAction
p321
(dp322
g3
g4
(g5
g6
Ntp323
Rp324
(lp325
I4
aS'b'
p326
ag4
(g11
g6
Ntp327
Rp328
(lp329
F0.0
aF0.0
aF0.0
ababsg15
(dp330
g17
I00
sg18
I00
ssg19
I0
sg20
(dp331
sbS'4:b-f'
p332
s(itask_sim.amdp_plan_action
AMDPPlanAction
p333
(dp334
g3
g4
(g5
g6
Ntp335
Rp336
(lp337
I0
aS'apple'
p338
ag4
(g11
g6
Ntp339
Rp340
(lp341
F0.0
aF0.0
aF0.0
ababsg15
(dp342
g17
I00
sg18
I00
ssg19
I0
sg20
(dp343
sbS'0:apple-f'
p344
s(itask_sim.amdp_plan_action
AMDPPlanAction
p345
(dp346
g3
g4
(g5
g6
Ntp347
Rp348
(lp349
I7
ag64
ag4
(g11
g6
Ntp350
Rp351
(lp352
F0.0
aF0.0
aF0.0
ababsg15
(dp353
g17
I00
sg18
I01
ssg19
I0
sg20
(dp354
sbS'7:-f'
p355
s(itask_sim.amdp_plan_action
AMDPPlanAction
p356
(dp357
g3
g4
(g5
g6
Ntp358
Rp359
(lp360
I4
aS'fr'
p361
ag4
(g11
g6
Ntp362
Rp363
(lp364
F0.0
aF0.0
aF0.0
ababsg15
(dp365
g17
I01
sg18
I01
ssg19
I0
sg20
(dp366
g18
I00
ssbS'4:fr'
p367
s(itask_sim.amdp_plan_action
AMDPPlanAction
p368
(dp369
g3
g4
(g5
g6
Ntp370
Rp371
(lp372
I4
ag361
ag4
(g11
g6
Ntp373
Rp374
(lp375
F0.0
aF0.0
aF0.0
ababsg15
(dp376
g17
I00
sg18
I00
ssg19
I0
sg20
(dp377
sbS'4:fr-f'
p378
s.