(dp0
S'lid'
p1
(lp2
S'lid'
p3
asS'box'
p4
(lp5
S'box'
p6
asS'handle'
p7
(lp8
S'handle'
p9
asS'apple'
p10
(lp11
S'apple'
p12
asS''
p13
(lp14
g13
asN(lp15
g13
asS'li'
p16
(lp17
S'li'
p18
asS'drawer'
p19
(lp20
S'drawer'
p21
asS'table'
p22
(lp23
S'table'
p24
asS'cluster0'
p25
(lp26
S'flashlight'
p27
aS'batteries'
p28
asS'stack'
p29
(lp30
S'stack'
p31
as.