(dp0
S'flashlight'
p1
S'cluster0'
p2
sS'lid'
p3
S'lid'
p4
sS'handle'
p5
S'handle'
p6
sS'apple'
p7
S'apple'
p8
sS'box'
p9
S'box'
p10
sS'li'
p11
S'li'
p12
sS'drawer'
p13
S'drawer'
p14
sS'batteries'
p15
g2
sS'table'
p16
S'table'
p17
sS'stack'
p18
S'stack'
p19
s.