(dp0
S'lid'
p1
(lp2
S'lid'
p3
asS'box'
p4
(lp5
S'box'
p6
asS'apple'
p7
(lp8
S'apple'
p9
asS''
p10
(lp11
g10
asS'li'
p12
(lp13
S'li'
p14
asS'drawer'
p15
(lp16
S'drawer'
p17
asN(lp18
g10
asS'table'
p19
(lp20
S'table'
p21
asS'cluster0'
p22
(lp23
S'stack'
p24
aS'handle'
p25
asS'cluster1'
p26
(lp27
S'flashlight'
p28
aS'batteries'
p29
as.