(dp0
S'lid'
p1
S'cluster0'
p2
sS'flashlight'
p3
g2
sS'handle'
p4
g2
sS'apple'
p5
g2
sS''
p6
g6
sS'box'
p7
g2
sS'li'
p8
g2
sS'drawer'
p9
g2
sS'batteries'
p10
g2
sNg6
sS'table'
p11
g2
sS'stack'
p12
g2
s.