(dp0
S'flashlight'
p1
S'cluster1'
p2
sS'lid'
p3
S'lid'
p4
sS'handle'
p5
S'cluster0'
p6
sS'apple'
p7
S'apple'
p8
sS''
p9
g9
sNg9
sS'box'
p10
S'box'
p11
sS'li'
p12
S'li'
p13
sS'drawer'
p14
S'drawer'
p15
sS'batteries'
p16
g2
sS'table'
p17
S'table'
p18
sS'stack'
p19
g6
s.