(dp0
S'lid'
p1
S'lid'
p2
sS'box'
p3
S'box'
p4
sS'handle'
p5
S'handle'
p6
sS'apple'
p7
S'apple'
p8
sS'li'
p9
S'li'
p10
sS'drawer'
p11
S'drawer'
p12
sS'table'
p13
S'table'
p14
sS'cluster0'
p15
(lp16
S'flashlight'
p17
aS'batteries'
p18
asS'stack'
p19
S'stack'
p20
s.