(dp0
(iplan_action
PlanAction
p1
(dp2
S'target'
p3
S'table'
p4
sS'object_in_box'
p5
I00
sS'object_in_gripper'
p6
S'lid'
p7
sS'object'
p8
g7
sS'target_open'
p9
I01
sS'gripper_open'
p10
I00
sS'object_on_lid'
p11
I00
sS'effects'
p12
(dp13
g6
(lp14
S''
p15
asS'change_gripper'
p16
(lp17
S'open'
p18
asS'open'
p19
(lp20
S'box'
p21
assS'action'
p22
I1
sS'object_open'
p23
I00
sS'object_in_drawer'
p24
I00
sbS'1-lid-table'
p25
s(iplan_action
PlanAction
p26
(dp27
g3
Nsg5
I00
sg6
g15
sg8
S'cluster1'
p28
sg9
I01
sg10
I01
sg11
I00
sg12
(dp29
g6
(lp30
g28
asg16
(lp31
S'closed'
p32
assg22
I3
sg23
I00
sg24
I00
sbS'3-cluster1-None'
p33
s(iplan_action
PlanAction
p34
(dp35
g3
S'cluster0'
p36
sg5
I00
sg6
g28
sg8
g28
sg9
I01
sg10
I00
sg11
I00
sg12
(dp37
g6
(lp38
g15
asg16
(lp39
S'open'
p40
asS'in_drawer'
p41
(lp42
g28
assg22
I1
sg23
I00
sg24
I00
sbS'1-cluster1-cluster0'
p43
s(iplan_action
PlanAction
p44
(dp45
g3
Nsg5
I00
sg6
g15
sg8
Nsg9
I01
sg10
I01
sg11
I00
sg12
(dp46
sg22
I6
sg23
I00
sg24
I00
sbS'6-None-None-f'
p47
s(iplan_action
PlanAction
p48
(dp49
g3
S'drawer'
p50
sg5
I00
sg6
g15
sg8
Nsg9
I01
sg10
I01
sg11
I00
sg12
(dp51
sg22
I4
sg23
I00
sg24
I00
sbS'4-None-drawer-f'
p52
s(iplan_action
PlanAction
p53
(dp54
g3
Nsg5
I00
sg6
S'apple'
p55
sg8
g55
sg9
I01
sg10
I00
sg11
I00
sg12
(dp56
S'moved'
p57
(lp58
g55
assg22
I7
sg23
I00
sg24
I00
sbS'7-apple-None'
p59
s(iplan_action
PlanAction
p60
(dp61
g3
Nsg5
I00
sg6
g55
sg8
g55
sg9
I01
sg10
I00
sg11
I00
sg12
(dp62
g57
(lp63
g55
assg22
I5
sg23
I00
sg24
I00
sbS'5-apple-None'
p64
s(iplan_action
PlanAction
p65
(dp66
g3
g4
sg5
I00
sg6
g7
sg8
g7
sg9
I01
sg10
I00
sg11
I00
sg12
(dp67
g19
(lp68
g21
assg22
I4
sg23
I00
sg24
I00
sbS'4-lid-table'
p69
s(iplan_action
PlanAction
p70
(dp71
g3
Nsg5
I01
sg6
g28
sg8
g28
sg9
I01
sg10
I00
sg11
I00
sg12
(dp72
S'not_in_box'
p73
(lp74
g28
assg22
I5
sg23
I00
sg24
I00
sbS'5-cluster1-None'
p75
s(iplan_action
PlanAction
p76
(dp77
g3
g36
sg5
I00
sg6
g50
sg8
g50
sg9
I01
sg10
I00
sg11
I00
sg12
(dp78
g57
(lp79
g28
ag28
ag50
ag36
assg22
I4
sg23
I01
sg24
I00
sbS'4-drawer-cluster0'
p80
s(iplan_action
PlanAction
p81
(dp82
g3
Nsg5
I00
sg6
g15
sg8
g7
sg9
I01
sg10
I01
sg11
I00
sg12
(dp83
g6
(lp84
g7
asg16
(lp85
S'closed'
p86
assg22
I3
sg23
I00
sg24
I00
sbS'3-lid-None'
p87
s(iplan_action
PlanAction
p88
(dp89
g3
Nsg5
I00
sg6
g15
sg8
g7
sg9
I01
sg10
I01
sg11
I00
sg12
(dp90
g6
(lp91
g7
asg16
(lp92
S'closed'
p93
assg22
I0
sg23
I01
sg24
I00
sbS'0-lid-None'
p94
s(iplan_action
PlanAction
p95
(dp96
g3
Nsg5
I00
sg6
g28
sg8
g28
sg9
I01
sg10
I00
sg11
I00
sg12
(dp97
g57
(lp98
g28
assg22
I5
sg23
I00
sg24
I00
sbS'5-cluster1-None'
p99
s(iplan_action
PlanAction
p100
(dp101
g3
g50
sg5
I01
sg6
g28
sg8
g28
sg9
I01
sg10
I00
sg11
I00
sg12
(dp102
g6
(lp103
g15
asg16
(lp104
S'open'
p105
asg73
(lp106
g28
asg41
(lp107
g28
assg22
I1
sg23
I00
sg24
I00
sbS'1-cluster1-drawer'
p108
s(iplan_action
PlanAction
p109
(dp110
g3
Nsg5
I00
sg6
g15
sg8
Nsg9
I01
sg10
I01
sg11
I00
sg12
(dp111
sg22
I5
sg23
I00
sg24
I00
sbS'5-None-None-f'
p112
s(iplan_action
PlanAction
p113
(dp114
g3
g36
sg5
I00
sg6
g15
sg8
Nsg9
I01
sg10
I01
sg11
I00
sg12
(dp115
g57
(lp116
g28
asS'closed'
p117
(lp118
g50
assg22
I4
sg23
I00
sg24
I00
sbS'4-None-cluster0'
p119
s(iplan_action
PlanAction
p120
(dp121
g3
g21
sg5
I00
sg6
g7
sg8
g7
sg9
I01
sg10
I00
sg11
I00
sg12
(dp122
sg22
I1
sg23
I01
sg24
I00
sbS'1-lid-box-f'
p123
s(iplan_action
PlanAction
p124
(dp125
g3
g50
sg5
I00
sg6
g15
sg8
Nsg9
I01
sg10
I01
sg11
I00
sg12
(dp126
g41
(lp127
g28
ag28
assg22
I4
sg23
I00
sg24
I00
sbS'4-None-drawer'
p128
s(iplan_action
PlanAction
p129
(dp130
g3
g36
sg5
I00
sg6
g15
sg8
Nsg9
I01
sg10
I01
sg11
I00
sg12
(dp131
sg22
I4
sg23
I00
sg24
I00
sbS'4-None-cluster0-f'
p132
s(iplan_action
PlanAction
p133
(dp134
g3
g4
sg5
I00
sg6
g55
sg8
g55
sg9
I01
sg10
I00
sg11
I00
sg12
(dp135
g6
(lp136
g15
asg16
(lp137
S'open'
p138
asg57
(lp139
g55
assg22
I1
sg23
I00
sg24
I00
sbS'1-apple-table'
p140
s(iplan_action
PlanAction
p141
(dp142
g3
Nsg5
I00
sg6
g15
sg8
g55
sg9
I01
sg10
I01
sg11
I00
sg12
(dp143
g6
(lp144
g55
asg16
(lp145
S'closed'
p146
assg22
I3
sg23
I00
sg24
I00
sbS'3-apple-None'
p147
s(iplan_action
PlanAction
p148
(dp149
g3
Nsg5
I00
sg6
g7
sg8
g7
sg9
I01
sg10
I00
sg11
I00
sg12
(dp150
g6
(lp151
g15
asg16
(lp152
S'open'
p153
assg22
I2
sg23
I01
sg24
I00
sbS'2-lid-None'
p154
s(iplan_action
PlanAction
p155
(dp156
g3
Nsg5
I00
sg6
g15
sg8
g50
sg9
I01
sg10
I01
sg11
I00
sg12
(dp157
g6
(lp158
g50
asg16
(lp159
S'closed'
p160
assg22
I0
sg23
I00
sg24
I00
sbS'0-drawer-None'
p161
s(iplan_action
PlanAction
p162
(dp163
g3
Nsg5
I00
sg6
g50
sg8
g50
sg9
I01
sg10
I00
sg11
I00
sg12
(dp164
g6
(lp165
g15
asg16
(lp166
S'open'
p167
assg22
I2
sg23
I00
sg24
I00
sbS'2-drawer-None'
p168
s(iplan_action
PlanAction
p169
(dp170
g3
g7
sg5
I00
sg6
g7
sg8
g7
sg9
I01
sg10
I00
sg11
I00
sg12
(dp171
sg22
I4
sg23
I01
sg24
I00
sbS'4-lid-lid-f'
p172
s(iplan_action
PlanAction
p173
(dp174
g3
Nsg5
I00
sg6
g7
sg8
g7
sg9
I01
sg10
I00
sg11
I00
sg12
(dp175
g6
(lp176
g15
asg16
(lp177
S'open'
p178
asg57
(lp179
g7
assg22
I2
sg23
I00
sg24
I00
sbS'2-lid-None'
p180
s(iplan_action
PlanAction
p181
(dp182
g3
Nsg5
I01
sg6
g28
sg8
g28
sg9
I01
sg10
I00
sg11
I00
sg12
(dp183
g57
(lp184
g28
assg22
I5
sg23
I00
sg24
I00
sbS'5-cluster1-None'
p185
s(iplan_action
PlanAction
p186
(dp187
g3
g21
sg5
I00
sg6
g55
sg8
g55
sg9
I01
sg10
I00
sg11
I00
sg12
(dp188
sg22
I1
sg23
I00
sg24
I00
sbS'1-apple-box-f'
p189
s(iplan_action
PlanAction
p190
(dp191
g3
g21
sg5
I00
sg6
g55
sg8
g55
sg9
I01
sg10
I00
sg11
I00
sg12
(dp192
g57
(lp193
g55
assg22
I4
sg23
I00
sg24
I00
sbS'4-apple-box'
p194
s(iplan_action
PlanAction
p195
(dp196
g3
g4
sg5
I00
sg6
g7
sg8
g7
sg9
I01
sg10
I00
sg11
I00
sg12
(dp197
g57
(lp198
g7
assg22
I4
sg23
I01
sg24
I00
sbS'4-lid-table'
p199
s(iplan_action
PlanAction
p200
(dp201
g3
Nsg5
I00
sg6
g15
sg8
Nsg9
I01
sg10
I01
sg11
I00
sg12
(dp202
sg22
I7
sg23
I00
sg24
I00
sbS'7-None-None-f'
p203
s(iplan_action
PlanAction
p204
(dp205
g3
g4
sg5
I00
sg6
g15
sg8
Nsg9
I01
sg10
I01
sg11
I00
sg12
(dp206
g57
(lp207
g28
aS'granola'
p208
assg22
I4
sg23
I00
sg24
I00
sbS'4-None-table'
p209
s(iplan_action
PlanAction
p210
(dp211
g3
g36
sg5
I00
sg6
g15
sg8
Nsg9
I01
sg10
I01
sg11
I00
sg12
(dp212
g57
(lp213
g28
ag28
asg117
(lp214
g50
assg22
I4
sg23
I00
sg24
I00
sbS'4-None-cluster0'
p215
s(iplan_action
PlanAction
p216
(dp217
g3
g4
sg5
I00
sg6
g50
sg8
g50
sg9
I01
sg10
I00
sg11
I00
sg12
(dp218
g57
(lp219
g28
asg19
(lp220
g50
assg22
I4
sg23
I00
sg24
I00
sbS'4-drawer-table'
p221
s(iplan_action
PlanAction
p222
(dp223
g3
Nsg5
I00
sg6
g15
sg8
g55
sg9
I01
sg10
I01
sg11
I00
sg12
(dp224
sg22
I0
sg23
I00
sg24
I00
sbS'0-apple-None-f'
p225
s(iplan_action
PlanAction
p226
(dp227
g3
Nsg5
I00
sg6
g15
sg8
g50
sg9
I01
sg10
I01
sg11
I00
sg12
(dp228
sg22
I0
sg23
I01
sg24
I00
sbS'0-drawer-None-f'
p229
s(iplan_action
PlanAction
p230
(dp231
g3
g4
sg5
I00
sg6
g15
sg8
Nsg9
I01
sg10
I01
sg11
I00
sg12
(dp232
g57
(lp233
g55
ag28
assg22
I4
sg23
I00
sg24
I00
sbS'4-None-table'
p234
s(iplan_action
PlanAction
p235
(dp236
g3
Nsg5
I00
sg6
g15
sg8
g7
sg9
I01
sg10
I01
sg11
I00
sg12
(dp237
g6
(lp238
g7
asg16
(lp239
S'closed'
p240
assg22
I0
sg23
I00
sg24
I00
sbS'0-lid-None'
p241
s(iplan_action
PlanAction
p242
(dp243
g3
Nsg5
I01
sg6
g15
sg8
g28
sg9
I01
sg10
I01
sg11
I00
sg12
(dp244
g6
(lp245
g28
asg16
(lp246
S'closed'
p247
assg22
I0
sg23
I00
sg24
I00
sbS'0-cluster1-None'
p248
s(iplan_action
PlanAction
p249
(dp250
g3
g36
sg5
I00
sg6
g15
sg8
Nsg9
I00
sg10
I01
sg11
I00
sg12
(dp251
sg22
I4
sg23
I00
sg24
I00
sbS'4-None-cluster0-f'
p252
s(iplan_action
PlanAction
p253
(dp254
g3
g50
sg5
I00
sg6
g15
sg8
Nsg9
I01
sg10
I01
sg11
I00
sg12
(dp255
g57
(lp256
g28
ag28
asg117
(lp257
g50
assg22
I4
sg23
I00
sg24
I00
sbS'4-None-drawer'
p258
s(iplan_action
PlanAction
p259
(dp260
g3
g7
sg5
I00
sg6
g15
sg8
Nsg9
I00
sg10
I01
sg11
I00
sg12
(dp261
sg22
I4
sg23
I00
sg24
I00
sbS'4-None-lid-f'
p262
s(iplan_action
PlanAction
p263
(dp264
g3
g21
sg5
I00
sg6
g15
sg8
Nsg9
I01
sg10
I01
sg11
I00
sg12
(dp265
sg22
I4
sg23
I00
sg24
I00
sbS'4-None-box-f'
p266
s(iplan_action
PlanAction
p267
(dp268
g3
g4
sg5
I00
sg6
g15
sg8
Nsg9
I01
sg10
I01
sg11
I00
sg12
(dp269
sg22
I4
sg23
I00
sg24
I00
sbS'4-None-table-f'
p270
s(iplan_action
PlanAction
p271
(dp272
g3
g4
sg5
I00
sg6
g50
sg8
g50
sg9
I01
sg10
I00
sg11
I00
sg12
(dp273
g57
(lp274
g28
ag50
ag36
assg22
I4
sg23
I01
sg24
I00
sbS'4-drawer-table'
p275
s(iplan_action
PlanAction
p276
(dp277
g3
Nsg5
I00
sg6
g28
sg8
g28
sg9
I01
sg10
I00
sg11
I00
sg12
(dp278
g6
(lp279
g15
asg16
(lp280
S'open'
p281
assg22
I2
sg23
I00
sg24
I00
sbS'2-cluster1-None'
p282
s(iplan_action
PlanAction
p283
(dp284
g3
g4
sg5
I00
sg6
g28
sg8
g28
sg9
I01
sg10
I00
sg11
I00
sg12
(dp285
g57
(lp286
g28
assg22
I4
sg23
I00
sg24
I00
sbS'4-cluster1-table'
p287
s(iplan_action
PlanAction
p288
(dp289
g3
g21
sg5
I00
sg6
g55
sg8
g55
sg9
I01
sg10
I00
sg11
I00
sg12
(dp290
g6
(lp291
g15
asg16
(lp292
S'open'
p293
asS'in_box'
p294
(lp295
g55
assg22
I1
sg23
I00
sg24
I00
sbS'1-apple-box'
p296
s(iplan_action
PlanAction
p297
(dp298
g3
Nsg5
I00
sg6
g7
sg8
g7
sg9
I01
sg10
I00
sg11
I00
sg12
(dp299
g6
(lp300
g15
asg16
(lp301
S'open'
p302
asg57
(lp303
g7
assg22
I2
sg23
I01
sg24
I00
sbS'2-lid-None'
p304
s(iplan_action
PlanAction
p305
(dp306
g3
Nsg5
I00
sg6
g28
sg8
g28
sg9
I01
sg10
I00
sg11
I00
sg12
(dp307
g6
(lp308
g15
asg16
(lp309
S'open'
p310
asg41
(lp311
g28
assg22
I2
sg23
I00
sg24
I00
sbS'2-cluster1-None'
p312
s(iplan_action
PlanAction
p313
(dp314
g3
Nsg5
I00
sg6
g15
sg8
g7
sg9
I01
sg10
I01
sg11
I00
sg12
(dp315
sg22
I0
sg23
I00
sg24
I00
sbS'0-lid-None-f'
p316
s(iplan_action
PlanAction
p317
(dp318
g3
g21
sg5
I00
sg6
g7
sg8
g7
sg9
I01
sg10
I00
sg11
I00
sg12
(dp319
g6
(lp320
g15
asg16
(lp321
S'open'
p322
asg117
(lp323
g21
assg22
I1
sg23
I01
sg24
I00
sbS'1-lid-box'
p324
s(iplan_action
PlanAction
p325
(dp326
g3
Nsg5
I00
sg6
g15
sg8
g50
sg9
I01
sg10
I01
sg11
I00
sg12
(dp327
g6
(lp328
g50
asg16
(lp329
S'closed'
p330
assg22
I0
sg23
I01
sg24
I00
sbS'0-drawer-None'
p331
s(iplan_action
PlanAction
p332
(dp333
g3
Nsg5
I00
sg6
g15
sg8
g55
sg9
I01
sg10
I01
sg11
I00
sg12
(dp334
g6
(lp335
g55
asg16
(lp336
S'closed'
p337
assg22
I0
sg23
I00
sg24
I00
sbS'0-apple-None'
p338
s(iplan_action
PlanAction
p339
(dp340
g3
Nsg5
I01
sg6
g15
sg8
g28
sg9
I01
sg10
I01
sg11
I00
sg12
(dp341
g6
(lp342
g28
asg16
(lp343
S'closed'
p344
assg22
I3
sg23
I00
sg24
I00
sbS'3-cluster1-None'
p345
s(iplan_action
PlanAction
p346
(dp347
g3
g21
sg5
I00
sg6
g7
sg8
g7
sg9
I01
sg10
I00
sg11
I00
sg12
(dp348
g117
(lp349
g21
assg22
I4
sg23
I01
sg24
I00
sbS'4-lid-box'
p350
s(iplan_action
PlanAction
p351
(dp352
g3
Nsg5
I00
sg6
g15
sg8
S'li'
p353
sg9
I01
sg10
I01
sg11
I00
sg12
(dp354
sg22
I0
sg23
I00
sg24
I00
sbS'0-li-None-f'
p355
s(iplan_action
PlanAction
p356
(dp357
g3
Nsg5
I00
sg6
g28
sg8
g28
sg9
I01
sg10
I00
sg11
I00
sg12
(dp358
sg22
I7
sg23
I00
sg24
I00
sbS'7-cluster1-None-f'
p359
s(iplan_action
PlanAction
p360
(dp361
g3
g36
sg5
I00
sg6
g50
sg8
g50
sg9
I01
sg10
I00
sg11
I00
sg12
(dp362
g57
(lp363
g28
ag28
asg117
(lp364
g50
assg22
I4
sg23
I01
sg24
I00
sbS'4-drawer-cluster0'
p365
s(iplan_action
PlanAction
p366
(dp367
g3
Nsg5
I00
sg6
g7
sg8
g7
sg9
I01
sg10
I00
sg11
I00
sg12
(dp368
g6
(lp369
g15
asg16
(lp370
S'open'
p371
assg22
I2
sg23
I00
sg24
I00
sbS'2-lid-None'
p372
sS'start'
p373
g373
s(iplan_action
PlanAction
p374
(dp375
g3
g50
sg5
I00
sg6
g28
sg8
g28
sg9
I01
sg10
I00
sg11
I00
sg12
(dp376
g57
(lp377
g28
assg22
I4
sg23
I00
sg24
I00
sbS'4-cluster1-drawer'
p378
s(iplan_action
PlanAction
p379
(dp380
g3
Nsg5
I00
sg6
g28
sg8
g28
sg9
I01
sg10
I00
sg11
I00
sg12
(dp381
g57
(lp382
g28
assg22
I7
sg23
I00
sg24
I00
sbS'7-cluster1-None'
p383
s(iplan_action
PlanAction
p384
(dp385
g3
g7
sg5
I00
sg6
g7
sg8
g7
sg9
I00
sg10
I00
sg11
I00
sg12
(dp386
g19
(lp387
g21
assg22
I4
sg23
I00
sg24
I00
sbS'4-lid-lid'
p388
s(iplan_action
PlanAction
p389
(dp390
g3
g28
sg5
I00
sg6
g15
sg8
Nsg9
I01
sg10
I01
sg11
I00
sg12
(dp391
sg22
I4
sg23
I00
sg24
I00
sbS'4-None-cluster1-f'
p392
s(iplan_action
PlanAction
p393
(dp394
g3
Nsg5
I00
sg6
g15
sg8
g50
sg9
I01
sg10
I01
sg11
I00
sg12
(dp395
sg22
I0
sg23
I00
sg24
I00
sbS'0-drawer-None-f'
p396
s(iplan_action
PlanAction
p397
(dp398
g3
Nsg5
I00
sg6
g15
sg8
Nsg9
I01
sg10
I01
sg11
I00
sg12
(dp399
sg22
I2
sg23
I00
sg24
I00
sbS'2-None-None-f'
p400
s(iplan_action
PlanAction
p401
(dp402
g3
Nsg5
I00
sg6
g7
sg8
g7
sg9
I01
sg10
I00
sg11
I00
sg12
(dp403
g57
(lp404
g7
assg22
I5
sg23
I01
sg24
I00
sbS'5-lid-None'
p405
s(iplan_action
PlanAction
p406
(dp407
g3
g55
sg5
I00
sg6
g15
sg8
Nsg9
I01
sg10
I01
sg11
I00
sg12
(dp408
sg22
I4
sg23
I00
sg24
I00
sbS'4-None-apple-f'
p409
s(iplan_action
PlanAction
p410
(dp411
g3
g7
sg5
I00
sg6
g7
sg8
g7
sg9
I01
sg10
I00
sg11
I00
sg12
(dp412
g57
(lp413
g7
assg22
I4
sg23
I01
sg24
I00
sbS'4-lid-lid'
p414
s(iplan_action
PlanAction
p415
(dp416
g3
Nsg5
I00
sg6
g55
sg8
g55
sg9
I01
sg10
I00
sg11
I00
sg12
(dp417
g6
(lp418
g15
asg16
(lp419
S'open'
p420
asg294
(lp421
g55
assg22
I2
sg23
I00
sg24
I00
sbS'2-apple-None'
p422
s(iplan_action
PlanAction
p423
(dp424
g3
g36
sg5
I00
sg6
g7
sg8
g7
sg9
I01
sg10
I00
sg11
I00
sg12
(dp425
g6
(lp426
g15
asg16
(lp427
S'open'
p428
asg19
(lp429
g21
assg22
I1
sg23
I00
sg24
I00
sbS'1-lid-cluster0'
p430
s(iplan_action
PlanAction
p431
(dp432
g3
g50
sg5
I00
sg6
g28
sg8
g28
sg9
I01
sg10
I00
sg11
I00
sg12
(dp433
sg22
I1
sg23
I00
sg24
I00
sbS'1-cluster1-drawer-f'
p434
s(iplan_action
PlanAction
p435
(dp436
g3
Nsg5
I00
sg6
g15
sg8
g7
sg9
I01
sg10
I01
sg11
I00
sg12
(dp437
sg22
I0
sg23
I01
sg24
I00
sbS'0-lid-None-f'
p438
s(iplan_action
PlanAction
p439
(dp440
g3
Nsg5
I00
sg6
g15
sg8
g28
sg9
I01
sg10
I01
sg11
I00
sg12
(dp441
g6
(lp442
g28
asg16
(lp443
S'closed'
p444
assg22
I0
sg23
I00
sg24
I00
sbS'0-cluster1-None'
p445
s(iplan_action
PlanAction
p446
(dp447
g3
g50
sg5
I00
sg6
g28
sg8
g28
sg9
I01
sg10
I00
sg11
I00
sg12
(dp448
g6
(lp449
g15
asg16
(lp450
S'open'
p451
asg41
(lp452
g28
assg22
I1
sg23
I00
sg24
I00
sbS'1-cluster1-drawer'
p453
s(iplan_action
PlanAction
p454
(dp455
g3
g50
sg5
I00
sg6
g28
sg8
g28
sg9
I01
sg10
I00
sg11
I00
sg12
(dp456
g57
(lp457
g28
asg41
(lp458
g28
assg22
I4
sg23
I00
sg24
I00
sbS'4-cluster1-drawer'
p459
s(iplan_action
PlanAction
p460
(dp461
g3
g4
sg5
I00
sg6
g15
sg8
Nsg9
I01
sg10
I01
sg11
I00
sg12
(dp462
g57
(lp463
g28
assg22
I4
sg23
I00
sg24
I00
sbS'4-None-table'
p464
s(iplan_action
PlanAction
p465
(dp466
g3
g36
sg5
I00
sg6
g28
sg8
g28
sg9
I01
sg10
I00
sg11
I00
sg12
(dp467
g6
(lp468
g15
asg16
(lp469
S'open'
p470
asg57
(lp471
g28
assg22
I1
sg23
I00
sg24
I00
sbS'1-cluster1-cluster0'
p472
s(iplan_action
PlanAction
p473
(dp474
g3
g4
sg5
I00
sg6
g50
sg8
g50
sg9
I01
sg10
I00
sg11
I00
sg12
(dp475
g57
(lp476
g50
ag36
assg22
I4
sg23
I01
sg24
I00
sbS'4-drawer-table'
p477
s(iplan_action
PlanAction
p478
(dp479
g3
g4
sg5
I00
sg6
g50
sg8
g50
sg9
I01
sg10
I00
sg11
I00
sg12
(dp480
g19
(lp481
g50
assg22
I4
sg23
I00
sg24
I00
sbS'4-drawer-table'
p482
s(iplan_action
PlanAction
p483
(dp484
g3
g50
sg5
I00
sg6
g50
sg8
g50
sg9
I01
sg10
I00
sg11
I00
sg12
(dp485
g117
(lp486
g50
assg22
I4
sg23
I01
sg24
I00
sbS'4-drawer-drawer'
p487
s(iplan_action
PlanAction
p488
(dp489
g3
g36
sg5
I00
sg6
g28
sg8
g28
sg9
I01
sg10
I00
sg11
I00
sg12
(dp490
sg22
I1
sg23
I00
sg24
I00
sbS'1-cluster1-cluster0-f'
p491
s(iplan_action
PlanAction
p492
(dp493
g3
Nsg5
I00
sg6
g50
sg8
g50
sg9
I01
sg10
I00
sg11
I00
sg12
(dp494
g6
(lp495
g15
asg16
(lp496
S'open'
p497
assg22
I2
sg23
I01
sg24
I00
sbS'2-drawer-None'
p498
s(iplan_action
PlanAction
p499
(dp500
g3
g50
sg5
I00
sg6
g50
sg8
g50
sg9
I01
sg10
I00
sg11
I00
sg12
(dp501
g57
(lp502
g28
ag28
asg117
(lp503
g50
assg22
I4
sg23
I01
sg24
I00
sbS'4-drawer-drawer'
p504
s(iplan_action
PlanAction
p505
(dp506
g3
Nsg5
I00
sg6
g15
sg8
g28
sg9
I01
sg10
I01
sg11
I00
sg12
(dp507
sg22
I0
sg23
I00
sg24
I00
sbS'0-cluster1-None-f'
p508
s.