(dp0
(iplan_action
PlanAction
p1
(dp2
S'target'
p3
S'table'
p4
sS'object_in_box'
p5
I00
sS'object_in_gripper'
p6
S'lid'
p7
sS'object'
p8
g7
sS'target_open'
p9
I01
sS'gripper_open'
p10
I00
sS'object_on_lid'
p11
I00
sS'effects'
p12
(dp13
g6
(lp14
S''
p15
asS'change_gripper'
p16
(lp17
S'open'
p18
asS'open'
p19
(lp20
S'box'
p21
assS'action'
p22
I1
sS'object_open'
p23
I00
sS'object_in_drawer'
p24
I00
sbS'1-lid-table'
p25
s(iplan_action
PlanAction
p26
(dp27
g3
Nsg5
I00
sg6
g15
sg8
S'cluster0'
p28
sg9
I01
sg10
I01
sg11
I00
sg12
(dp29
g6
(lp30
g28
asg16
(lp31
S'closed'
p32
assg22
I3
sg23
I00
sg24
I00
sbS'3-cluster0-None'
p33
s(iplan_action
PlanAction
p34
(dp35
g3
Nsg5
I00
sg6
g15
sg8
S'apple'
p36
sg9
I01
sg10
I01
sg11
I00
sg12
(dp37
sg22
I0
sg23
I00
sg24
I00
sbS'0-apple-None-f'
p38
s(iplan_action
PlanAction
p39
(dp40
g3
g21
sg5
I00
sg6
g36
sg8
g36
sg9
I01
sg10
I00
sg11
I00
sg12
(dp41
S'moved'
p42
(lp43
g36
assg22
I4
sg23
I00
sg24
I00
sbS'4-apple-box'
p44
s(iplan_action
PlanAction
p45
(dp46
g3
g4
sg5
I00
sg6
g15
sg8
Nsg9
I01
sg10
I01
sg11
I00
sg12
(dp47
g42
(lp48
g28
aS'granola'
p49
assg22
I4
sg23
I00
sg24
I00
sbS'4-None-table'
p50
s(iplan_action
PlanAction
p51
(dp52
g3
S'stack'
p53
sg5
I00
sg6
g15
sg8
Nsg9
I01
sg10
I01
sg11
I00
sg12
(dp54
g42
(lp55
g28
ag28
asS'closed'
p56
(lp57
S'drawer'
p58
assg22
I4
sg23
I00
sg24
I00
sbS'4-None-stack'
p59
s(iplan_action
PlanAction
p60
(dp61
g3
g4
sg5
I00
sg6
g7
sg8
g7
sg9
I01
sg10
I00
sg11
I00
sg12
(dp62
g19
(lp63
g21
assg22
I4
sg23
I00
sg24
I00
sbS'4-lid-table'
p64
s(iplan_action
PlanAction
p65
(dp66
g3
g7
sg5
I00
sg6
g7
sg8
g7
sg9
I01
sg10
I00
sg11
I00
sg12
(dp67
g19
(lp68
g21
assg22
I4
sg23
I00
sg24
I00
sbS'4-lid-lid'
p69
s(iplan_action
PlanAction
p70
(dp71
g3
Nsg5
I00
sg6
g15
sg8
g7
sg9
I01
sg10
I01
sg11
I00
sg12
(dp72
g6
(lp73
g7
asg16
(lp74
S'closed'
p75
assg22
I0
sg23
I00
sg24
I00
sbS'0-lid-None'
p76
s(iplan_action
PlanAction
p77
(dp78
g3
g4
sg5
I00
sg6
g7
sg8
g7
sg9
I01
sg10
I00
sg11
I00
sg12
(dp79
g42
(lp80
g7
assg22
I4
sg23
I01
sg24
I00
sbS'4-lid-table'
p81
s(iplan_action
PlanAction
p82
(dp83
g3
Nsg5
I00
sg6
g7
sg8
g7
sg9
I01
sg10
I00
sg11
I00
sg12
(dp84
g6
(lp85
g15
asg16
(lp86
S'open'
p87
assg22
I2
sg23
I01
sg24
I00
sbS'2-lid-None'
p88
s(iplan_action
PlanAction
p89
(dp90
g3
Nsg5
I00
sg6
g15
sg8
g36
sg9
I01
sg10
I01
sg11
I00
sg12
(dp91
g6
(lp92
g36
asg16
(lp93
S'closed'
p94
assg22
I3
sg23
I00
sg24
I00
sbS'3-apple-None'
p95
s(iplan_action
PlanAction
p96
(dp97
g3
g21
sg5
I00
sg6
g7
sg8
g7
sg9
I01
sg10
I00
sg11
I00
sg12
(dp98
sg22
I1
sg23
I01
sg24
I00
sbS'1-lid-box-f'
p99
s(iplan_action
PlanAction
p100
(dp101
g3
g53
sg5
I00
sg6
g15
sg8
Nsg9
I01
sg10
I01
sg11
I00
sg12
(dp102
sg22
I4
sg23
I00
sg24
I00
sbS'4-None-stack-f'
p103
s(iplan_action
PlanAction
p104
(dp105
g3
g4
sg5
I00
sg6
g15
sg8
Nsg9
I01
sg10
I01
sg11
I00
sg12
(dp106
g42
(lp107
g36
ag28
assg22
I4
sg23
I00
sg24
I00
sbS'4-None-table'
p108
s(iplan_action
PlanAction
p109
(dp110
g3
Nsg5
I00
sg6
g15
sg8
g28
sg9
I01
sg10
I01
sg11
I00
sg12
(dp111
g6
(lp112
g28
asg16
(lp113
S'closed'
p114
assg22
I0
sg23
I00
sg24
I00
sbS'0-cluster0-None'
p115
s(iplan_action
PlanAction
p116
(dp117
g3
Nsg5
I00
sg6
g7
sg8
g7
sg9
I01
sg10
I00
sg11
I00
sg12
(dp118
g42
(lp119
g7
assg22
I5
sg23
I01
sg24
I00
sbS'5-lid-None'
p120
s(iplan_action
PlanAction
p121
(dp122
g3
S'handle'
p123
sg5
I00
sg6
g15
sg8
Nsg9
I01
sg10
I01
sg11
I00
sg12
(dp124
sg22
I4
sg23
I00
sg24
I00
sbS'4-None-handle-f'
p125
s(iplan_action
PlanAction
p126
(dp127
g3
g4
sg5
I00
sg6
g36
sg8
g36
sg9
I01
sg10
I00
sg11
I00
sg12
(dp128
g6
(lp129
g15
asg16
(lp130
S'open'
p131
asg42
(lp132
g36
assg22
I1
sg23
I00
sg24
I00
sbS'1-apple-table'
p133
s(iplan_action
PlanAction
p134
(dp135
g3
g28
sg5
I00
sg6
g15
sg8
Nsg9
I01
sg10
I01
sg11
I00
sg12
(dp136
sg22
I4
sg23
I00
sg24
I00
sbS'4-None-cluster0-f'
p137
s(iplan_action
PlanAction
p138
(dp139
g3
Nsg5
I01
sg6
g28
sg8
g28
sg9
I01
sg10
I00
sg11
I00
sg12
(dp140
g42
(lp141
g28
assg22
I5
sg23
I00
sg24
I00
sbS'5-cluster0-None'
p142
s(iplan_action
PlanAction
p143
(dp144
g3
g53
sg5
I00
sg6
g7
sg8
g7
sg9
I01
sg10
I00
sg11
I00
sg12
(dp145
g6
(lp146
g15
asg16
(lp147
S'open'
p148
asg19
(lp149
g21
assg22
I1
sg23
I00
sg24
I00
sbS'1-lid-stack'
p150
s(iplan_action
PlanAction
p151
(dp152
g3
g58
sg5
I00
sg6
g15
sg8
Nsg9
I01
sg10
I01
sg11
I00
sg12
(dp153
g42
(lp154
g28
ag28
asg56
(lp155
g58
assg22
I4
sg23
I00
sg24
I00
sbS'4-None-drawer'
p156
s(iplan_action
PlanAction
p157
(dp158
g3
Nsg5
I00
sg6
g15
sg8
g7
sg9
I01
sg10
I01
sg11
I00
sg12
(dp159
g6
(lp160
g7
asg16
(lp161
S'closed'
p162
assg22
I0
sg23
I01
sg24
I00
sbS'0-lid-None'
p163
s(iplan_action
PlanAction
p164
(dp165
g3
g7
sg5
I00
sg6
g7
sg8
g7
sg9
I01
sg10
I00
sg11
I00
sg12
(dp166
sg22
I4
sg23
I01
sg24
I00
sbS'4-lid-lid-f'
p167
s(iplan_action
PlanAction
p168
(dp169
g3
Nsg5
I00
sg6
g28
sg8
g28
sg9
I01
sg10
I00
sg11
I00
sg12
(dp170
sg22
I7
sg23
I00
sg24
I00
sbS'7-cluster0-None-f'
p171
s(iplan_action
PlanAction
p172
(dp173
g3
g58
sg5
I00
sg6
g28
sg8
g28
sg9
I01
sg10
I00
sg11
I00
sg12
(dp174
sg22
I1
sg23
I00
sg24
I00
sbS'1-cluster0-drawer-f'
p175
s(iplan_action
PlanAction
p176
(dp177
g3
Nsg5
I00
sg6
g28
sg8
g28
sg9
I01
sg10
I00
sg11
I00
sg12
(dp178
g42
(lp179
g28
assg22
I5
sg23
I00
sg24
I00
sbS'5-cluster0-None'
p180
s(iplan_action
PlanAction
p181
(dp182
g3
Nsg5
I00
sg6
g15
sg8
g58
sg9
I01
sg10
I01
sg11
I00
sg12
(dp183
sg22
I0
sg23
I00
sg24
I00
sbS'0-drawer-None-f'
p184
s(iplan_action
PlanAction
p185
(dp186
g3
Nsg5
I00
sg6
g15
sg8
Nsg9
I01
sg10
I01
sg11
I00
sg12
(dp187
sg22
I6
sg23
I00
sg24
I00
sbS'6-None-None-f'
p188
s(iplan_action
PlanAction
p189
(dp190
g3
g53
sg5
I00
sg6
g15
sg8
Nsg9
I01
sg10
I01
sg11
I00
sg12
(dp191
g42
(lp192
g28
asg56
(lp193
g58
assg22
I4
sg23
I00
sg24
I00
sbS'4-None-stack'
p194
s(iplan_action
PlanAction
p195
(dp196
g3
g21
sg5
I00
sg6
g36
sg8
g36
sg9
I01
sg10
I00
sg11
I00
sg12
(dp197
sg22
I1
sg23
I00
sg24
I00
sbS'1-apple-box-f'
p198
s(iplan_action
PlanAction
p199
(dp200
g3
g58
sg5
I00
sg6
g28
sg8
g28
sg9
I01
sg10
I00
sg11
I00
sg12
(dp201
g6
(lp202
g15
asg16
(lp203
S'open'
p204
asS'in_drawer'
p205
(lp206
g28
assg22
I1
sg23
I00
sg24
I00
sbS'1-cluster0-drawer'
p207
s(iplan_action
PlanAction
p208
(dp209
g3
Nsg5
I00
sg6
g15
sg8
Nsg9
I01
sg10
I01
sg11
I00
sg12
(dp210
sg22
I5
sg23
I00
sg24
I00
sbS'5-None-None-f'
p211
s(iplan_action
PlanAction
p212
(dp213
g3
Nsg5
I00
sg6
g58
sg8
g58
sg9
I01
sg10
I00
sg11
I00
sg12
(dp214
g6
(lp215
g15
asg16
(lp216
S'open'
p217
assg22
I2
sg23
I01
sg24
I00
sbS'2-drawer-None'
p218
s(iplan_action
PlanAction
p219
(dp220
g3
Nsg5
I00
sg6
g28
sg8
g28
sg9
I01
sg10
I00
sg11
I00
sg12
(dp221
g6
(lp222
g15
asg16
(lp223
S'open'
p224
asg205
(lp225
g28
assg22
I2
sg23
I00
sg24
I00
sbS'2-cluster0-None'
p226
s(iplan_action
PlanAction
p227
(dp228
g3
g53
sg5
I00
sg6
g58
sg8
g58
sg9
I01
sg10
I00
sg11
I00
sg12
(dp229
g42
(lp230
g28
ag28
asg56
(lp231
g58
assg22
I4
sg23
I01
sg24
I00
sbS'4-drawer-stack'
p232
s(iplan_action
PlanAction
p233
(dp234
g3
Nsg5
I00
sg6
g7
sg8
g7
sg9
I01
sg10
I00
sg11
I00
sg12
(dp235
g6
(lp236
g15
asg16
(lp237
S'open'
p238
assg22
I2
sg23
I00
sg24
I00
sbS'2-lid-None'
p239
s(iplan_action
PlanAction
p240
(dp241
g3
Nsg5
I00
sg6
g58
sg8
g58
sg9
I01
sg10
I00
sg11
I00
sg12
(dp242
g6
(lp243
g15
asg16
(lp244
S'open'
p245
assg22
I2
sg23
I00
sg24
I00
sbS'2-drawer-None'
p246
s(iplan_action
PlanAction
p247
(dp248
g3
g4
sg5
I00
sg6
g58
sg8
g58
sg9
I01
sg10
I00
sg11
I00
sg12
(dp249
g42
(lp250
g28
asg19
(lp251
g58
assg22
I4
sg23
I00
sg24
I00
sbS'4-drawer-table'
p252
s(iplan_action
PlanAction
p253
(dp254
g3
g58
sg5
I00
sg6
g15
sg8
Nsg9
I01
sg10
I01
sg11
I00
sg12
(dp255
sg22
I4
sg23
I00
sg24
I00
sbS'4-None-drawer-f'
p256
s(iplan_action
PlanAction
p257
(dp258
g3
g4
sg5
I00
sg6
g58
sg8
g58
sg9
I01
sg10
I00
sg11
I00
sg12
(dp259
g42
(lp260
g58
ag123
assg22
I4
sg23
I01
sg24
I00
sbS'4-drawer-table'
p261
s(iplan_action
PlanAction
p262
(dp263
g3
Nsg5
I00
sg6
g15
sg8
g58
sg9
I01
sg10
I01
sg11
I00
sg12
(dp264
g6
(lp265
g58
asg16
(lp266
S'closed'
p267
assg22
I0
sg23
I01
sg24
I00
sbS'0-drawer-None'
p268
s(iplan_action
PlanAction
p269
(dp270
g3
g58
sg5
I00
sg6
g15
sg8
Nsg9
I01
sg10
I01
sg11
I00
sg12
(dp271
g205
(lp272
g28
ag28
assg22
I4
sg23
I00
sg24
I00
sbS'4-None-drawer'
p273
s(iplan_action
PlanAction
p274
(dp275
g3
g4
sg5
I00
sg6
g15
sg8
Nsg9
I01
sg10
I01
sg11
I00
sg12
(dp276
g42
(lp277
g28
assg22
I4
sg23
I00
sg24
I00
sbS'4-None-table'
p278
s(iplan_action
PlanAction
p279
(dp280
g3
g21
sg5
I00
sg6
g36
sg8
g36
sg9
I01
sg10
I00
sg11
I00
sg12
(dp281
g6
(lp282
g15
asg16
(lp283
S'open'
p284
asS'in_box'
p285
(lp286
g36
assg22
I1
sg23
I00
sg24
I00
sbS'1-apple-box'
p287
s(iplan_action
PlanAction
p288
(dp289
g3
g21
sg5
I00
sg6
g7
sg8
g7
sg9
I01
sg10
I00
sg11
I00
sg12
(dp290
g6
(lp291
g15
asg16
(lp292
S'open'
p293
asg56
(lp294
g21
assg22
I1
sg23
I01
sg24
I00
sbS'1-lid-box'
p295
s(iplan_action
PlanAction
p296
(dp297
g3
Nsg5
I01
sg6
g15
sg8
g28
sg9
I01
sg10
I01
sg11
I00
sg12
(dp298
g6
(lp299
g28
asg16
(lp300
S'closed'
p301
assg22
I3
sg23
I00
sg24
I00
sbS'3-cluster0-None'
p302
s(iplan_action
PlanAction
p303
(dp304
g3
g21
sg5
I00
sg6
g7
sg8
g7
sg9
I01
sg10
I00
sg11
I00
sg12
(dp305
g56
(lp306
g21
assg22
I4
sg23
I01
sg24
I00
sbS'4-lid-box'
p307
s(iplan_action
PlanAction
p308
(dp309
g3
g58
sg5
I00
sg6
g28
sg8
g28
sg9
I01
sg10
I00
sg11
I00
sg12
(dp310
g42
(lp311
g28
asg205
(lp312
g28
assg22
I4
sg23
I00
sg24
I00
sbS'4-cluster0-drawer'
p313
s(iplan_action
PlanAction
p314
(dp315
g3
Nsg5
I00
sg6
g15
sg8
g58
sg9
I01
sg10
I01
sg11
I00
sg12
(dp316
sg22
I0
sg23
I01
sg24
I00
sbS'0-drawer-None-f'
p317
sS'start'
p318
g318
s(iplan_action
PlanAction
p319
(dp320
g3
g7
sg5
I00
sg6
g15
sg8
Nsg9
I01
sg10
I01
sg11
I00
sg12
(dp321
sg22
I4
sg23
I00
sg24
I00
sbS'4-None-lid-f'
p322
s(iplan_action
PlanAction
p323
(dp324
g3
Nsg5
I00
sg6
g15
sg8
g58
sg9
I01
sg10
I01
sg11
I00
sg12
(dp325
g6
(lp326
g58
asg16
(lp327
S'closed'
p328
assg22
I0
sg23
I00
sg24
I00
sbS'0-drawer-None'
p329
s(iplan_action
PlanAction
p330
(dp331
g3
Nsg5
I00
sg6
g7
sg8
g7
sg9
I01
sg10
I00
sg11
I00
sg12
(dp332
g6
(lp333
g15
asg16
(lp334
S'open'
p335
asg42
(lp336
g7
assg22
I2
sg23
I00
sg24
I00
sbS'2-lid-None'
p337
s(iplan_action
PlanAction
p338
(dp339
g3
g36
sg5
I00
sg6
g15
sg8
Nsg9
I01
sg10
I01
sg11
I00
sg12
(dp340
sg22
I4
sg23
I00
sg24
I00
sbS'4-None-apple-f'
p341
s(iplan_action
PlanAction
p342
(dp343
g3
Nsg5
I00
sg6
g15
sg8
g7
sg9
I01
sg10
I01
sg11
I00
sg12
(dp344
sg22
I0
sg23
I01
sg24
I00
sbS'0-lid-None-f'
p345
s(iplan_action
PlanAction
p346
(dp347
g3
Nsg5
I01
sg6
g28
sg8
g28
sg9
I01
sg10
I00
sg11
I00
sg12
(dp348
S'not_in_box'
p349
(lp350
g28
assg22
I5
sg23
I00
sg24
I00
sbS'5-cluster0-None'
p351
s(iplan_action
PlanAction
p352
(dp353
g3
Nsg5
I01
sg6
g15
sg8
g28
sg9
I01
sg10
I01
sg11
I00
sg12
(dp354
g6
(lp355
g28
asg16
(lp356
S'closed'
p357
assg22
I0
sg23
I00
sg24
I00
sbS'0-cluster0-None'
p358
s(iplan_action
PlanAction
p359
(dp360
g3
g7
sg5
I00
sg6
g7
sg8
g7
sg9
I01
sg10
I00
sg11
I00
sg12
(dp361
g42
(lp362
g7
assg22
I4
sg23
I01
sg24
I00
sbS'4-lid-lid'
p363
s(iplan_action
PlanAction
p364
(dp365
g3
g58
sg5
I01
sg6
g28
sg8
g28
sg9
I01
sg10
I00
sg11
I00
sg12
(dp366
g6
(lp367
g15
asg16
(lp368
S'open'
p369
asg349
(lp370
g28
asg205
(lp371
g28
assg22
I1
sg23
I00
sg24
I00
sbS'1-cluster0-drawer'
p372
s(iplan_action
PlanAction
p373
(dp374
g3
Nsg5
I00
sg6
g36
sg8
g36
sg9
I01
sg10
I00
sg11
I00
sg12
(dp375
g42
(lp376
g36
assg22
I5
sg23
I00
sg24
I00
sbS'5-apple-None'
p377
s(iplan_action
PlanAction
p378
(dp379
g3
g4
sg5
I00
sg6
g28
sg8
g28
sg9
I01
sg10
I00
sg11
I00
sg12
(dp380
g42
(lp381
g28
assg22
I4
sg23
I00
sg24
I00
sbS'4-cluster0-table'
p382
s(iplan_action
PlanAction
p383
(dp384
g3
g21
sg5
I00
sg6
g15
sg8
Nsg9
I01
sg10
I01
sg11
I00
sg12
(dp385
sg22
I4
sg23
I00
sg24
I00
sbS'4-None-box-f'
p386
s(iplan_action
PlanAction
p387
(dp388
g3
Nsg5
I00
sg6
g28
sg8
g28
sg9
I01
sg10
I00
sg11
I00
sg12
(dp389
g6
(lp390
g15
asg16
(lp391
S'open'
p392
assg22
I2
sg23
I00
sg24
I00
sbS'2-cluster0-None'
p393
s(iplan_action
PlanAction
p394
(dp395
g3
g58
sg5
I00
sg6
g58
sg8
g58
sg9
I01
sg10
I00
sg11
I00
sg12
(dp396
g42
(lp397
g28
ag28
asg56
(lp398
g58
assg22
I4
sg23
I01
sg24
I00
sbS'4-drawer-drawer'
p399
s(iplan_action
PlanAction
p400
(dp401
g3
g58
sg5
I00
sg6
g28
sg8
g28
sg9
I01
sg10
I00
sg11
I00
sg12
(dp402
g42
(lp403
g28
assg22
I4
sg23
I00
sg24
I00
sbS'4-cluster0-drawer'
p404
s(iplan_action
PlanAction
p405
(dp406
g3
Nsg5
I00
sg6
g15
sg8
g7
sg9
I01
sg10
I01
sg11
I00
sg12
(dp407
g6
(lp408
g7
asg16
(lp409
S'closed'
p410
assg22
I3
sg23
I00
sg24
I00
sbS'3-lid-None'
p411
s(iplan_action
PlanAction
p412
(dp413
g3
Nsg5
I00
sg6
g28
sg8
g28
sg9
I01
sg10
I00
sg11
I00
sg12
(dp414
g42
(lp415
g28
assg22
I7
sg23
I00
sg24
I00
sbS'7-cluster0-None'
p416
s(iplan_action
PlanAction
p417
(dp418
g3
Nsg5
I00
sg6
g36
sg8
g36
sg9
I01
sg10
I00
sg11
I00
sg12
(dp419
g42
(lp420
g36
assg22
I7
sg23
I00
sg24
I00
sbS'7-apple-None'
p421
s(iplan_action
PlanAction
p422
(dp423
g3
Nsg5
I00
sg6
g15
sg8
Nsg9
I01
sg10
I01
sg11
I00
sg12
(dp424
sg22
I7
sg23
I00
sg24
I00
sbS'7-None-None-f'
p425
s(iplan_action
PlanAction
p426
(dp427
g3
g53
sg5
I00
sg6
g28
sg8
g28
sg9
I01
sg10
I00
sg11
I00
sg12
(dp428
g6
(lp429
g15
asg16
(lp430
S'open'
p431
asg42
(lp432
g28
assg22
I1
sg23
I00
sg24
I00
sbS'1-cluster0-stack'
p433
s(iplan_action
PlanAction
p434
(dp435
g3
Nsg5
I00
sg6
g15
sg8
S'li'
p436
sg9
I01
sg10
I01
sg11
I00
sg12
(dp437
sg22
I0
sg23
I00
sg24
I00
sbS'0-li-None-f'
p438
s(iplan_action
PlanAction
p439
(dp440
g3
Nsg5
I00
sg6
g36
sg8
g36
sg9
I01
sg10
I00
sg11
I00
sg12
(dp441
g6
(lp442
g15
asg16
(lp443
S'open'
p444
asg285
(lp445
g36
assg22
I2
sg23
I00
sg24
I00
sbS'2-apple-None'
p446
s(iplan_action
PlanAction
p447
(dp448
g3
Nsg5
I00
sg6
g15
sg8
g36
sg9
I01
sg10
I01
sg11
I00
sg12
(dp449
g6
(lp450
g36
asg16
(lp451
S'closed'
p452
assg22
I0
sg23
I00
sg24
I00
sbS'0-apple-None'
p453
s(iplan_action
PlanAction
p454
(dp455
g3
g53
sg5
I00
sg6
g58
sg8
g58
sg9
I01
sg10
I00
sg11
I00
sg12
(dp456
g42
(lp457
g28
ag28
ag58
ag123
assg22
I4
sg23
I01
sg24
I00
sbS'4-drawer-stack'
p458
s(iplan_action
PlanAction
p459
(dp460
g3
g53
sg5
I00
sg6
g28
sg8
g28
sg9
I01
sg10
I00
sg11
I00
sg12
(dp461
sg22
I1
sg23
I00
sg24
I00
sbS'1-cluster0-stack-f'
p462
s(iplan_action
PlanAction
p463
(dp464
g3
g4
sg5
I00
sg6
g58
sg8
g58
sg9
I01
sg10
I00
sg11
I00
sg12
(dp465
g42
(lp466
g28
ag58
ag123
assg22
I4
sg23
I01
sg24
I00
sbS'4-drawer-table'
p467
s(iplan_action
PlanAction
p468
(dp469
g3
g4
sg5
I00
sg6
g58
sg8
g58
sg9
I01
sg10
I00
sg11
I00
sg12
(dp470
g19
(lp471
g58
assg22
I4
sg23
I00
sg24
I00
sbS'4-drawer-table'
p472
s(iplan_action
PlanAction
p473
(dp474
g3
Nsg5
I00
sg6
g15
sg8
g28
sg9
I01
sg10
I01
sg11
I00
sg12
(dp475
sg22
I0
sg23
I00
sg24
I00
sbS'0-cluster0-None-f'
p476
s(iplan_action
PlanAction
p477
(dp478
g3
Nsg5
I00
sg6
g15
sg8
g7
sg9
I01
sg10
I01
sg11
I00
sg12
(dp479
sg22
I0
sg23
I00
sg24
I00
sbS'0-lid-None-f'
p480
s(iplan_action
PlanAction
p481
(dp482
g3
g58
sg5
I00
sg6
g58
sg8
g58
sg9
I01
sg10
I00
sg11
I00
sg12
(dp483
g56
(lp484
g58
assg22
I4
sg23
I01
sg24
I00
sbS'4-drawer-drawer'
p485
s(iplan_action
PlanAction
p486
(dp487
g3
Nsg5
I00
sg6
g15
sg8
Nsg9
I01
sg10
I01
sg11
I00
sg12
(dp488
sg22
I2
sg23
I00
sg24
I00
sbS'2-None-None-f'
p489
s(iplan_action
PlanAction
p490
(dp491
g3
g4
sg5
I00
sg6
g15
sg8
Nsg9
I01
sg10
I01
sg11
I00
sg12
(dp492
sg22
I4
sg23
I00
sg24
I00
sbS'4-None-table-f'
p493
s(iplan_action
PlanAction
p494
(dp495
g3
g53
sg5
I00
sg6
g28
sg8
g28
sg9
I01
sg10
I00
sg11
I00
sg12
(dp496
g6
(lp497
g15
asg16
(lp498
S'open'
p499
asg205
(lp500
g28
assg22
I1
sg23
I00
sg24
I00
sbS'1-cluster0-stack'
p501
s(iplan_action
PlanAction
p502
(dp503
g3
Nsg5
I00
sg6
g7
sg8
g7
sg9
I01
sg10
I00
sg11
I00
sg12
(dp504
g6
(lp505
g15
asg16
(lp506
S'open'
p507
asg42
(lp508
g7
assg22
I2
sg23
I01
sg24
I00
sbS'2-lid-None'
p509
s.