(dp0
(iplan_action
PlanAction
p1
(dp2
S'target'
p3
S'cluster0'
p4
sS'object_in_box'
p5
I00
sS'object_in_gripper'
p6
g4
sS'object'
p7
g4
sS'target_open'
p8
I01
sS'gripper_open'
p9
I00
sS'object_on_lid'
p10
I00
sS'effects'
p11
(dp12
S'moved'
p13
(lp14
g4
assS'action'
p15
I4
sS'object_open'
p16
I00
sS'object_in_drawer'
p17
I00
sbS'4-cluster0-cluster0'
p18
s(iplan_action
PlanAction
p19
(dp20
g3
Nsg5
I00
sg6
S''
p21
sg7
g4
sg8
I01
sg9
I01
sg10
I00
sg11
(dp22
g6
(lp23
g4
asS'change_gripper'
p24
(lp25
S'closed'
p26
assg15
I3
sg16
I00
sg17
I00
sbS'3-cluster0-None'
p27
s(iplan_action
PlanAction
p28
(dp29
g3
Nsg5
I00
sg6
g4
sg7
g4
sg8
I01
sg9
I00
sg10
I00
sg11
(dp30
g6
(lp31
g21
asg24
(lp32
S'open'
p33
assg15
I2
sg16
I00
sg17
I00
sbS'2-cluster0-None'
p34
s(iplan_action
PlanAction
p35
(dp36
g3
g4
sg5
I00
sg6
g4
sg7
g4
sg8
I01
sg9
I00
sg10
I00
sg11
(dp37
g6
(lp38
g21
asg24
(lp39
S'open'
p40
asS'closed'
p41
(lp42
g4
assg15
I1
sg16
I01
sg17
I00
sbS'1-cluster0-cluster0'
p43
s(iplan_action
PlanAction
p44
(dp45
g3
Nsg5
I00
sg6
g4
sg7
g4
sg8
I01
sg9
I00
sg10
I00
sg11
(dp46
g13
(lp47
g4
assg15
I5
sg16
I01
sg17
I00
sbS'5-cluster0-None'
p48
s(iplan_action
PlanAction
p49
(dp50
g3
Nsg5
I00
sg6
g4
sg7
g4
sg8
I01
sg9
I00
sg10
I00
sg11
(dp51
sg15
I7
sg16
I00
sg17
I00
sbS'7-cluster0-None-f'
p52
s(iplan_action
PlanAction
p53
(dp54
g3
g4
sg5
I00
sg6
g4
sg7
g4
sg8
I01
sg9
I00
sg10
I00
sg11
(dp55
g13
(lp56
g4
ag4
assg15
I4
sg16
I01
sg17
I00
sbS'4-cluster0-cluster0'
p57
s(iplan_action
PlanAction
p58
(dp59
g3
Nsg5
I00
sg6
g4
sg7
g4
sg8
I01
sg9
I00
sg10
I00
sg11
(dp60
g13
(lp61
g4
assg15
I5
sg16
I00
sg17
I00
sbS'5-cluster0-None'
p62
s(iplan_action
PlanAction
p63
(dp64
g3
g4
sg5
I00
sg6
g4
sg7
g4
sg8
I01
sg9
I00
sg10
I00
sg11
(dp65
g13
(lp66
g4
ag4
asg41
(lp67
g4
assg15
I4
sg16
I01
sg17
I00
sbS'4-cluster0-cluster0'
p68
s(iplan_action
PlanAction
p69
(dp70
g3
Nsg5
I01
sg6
g21
sg7
g4
sg8
I01
sg9
I01
sg10
I00
sg11
(dp71
g6
(lp72
g4
asg24
(lp73
S'closed'
p74
assg15
I3
sg16
I00
sg17
I00
sbS'3-cluster0-None'
p75
s(iplan_action
PlanAction
p76
(dp77
g3
Nsg5
I00
sg6
g21
sg7
g4
sg8
I01
sg9
I01
sg10
I00
sg11
(dp78
sg15
I0
sg16
I01
sg17
I00
sbS'0-cluster0-None-f'
p79
s(iplan_action
PlanAction
p80
(dp81
g3
g4
sg5
I00
sg6
g21
sg7
Nsg8
I01
sg9
I01
sg10
I00
sg11
(dp82
g13
(lp83
g4
ag4
assg15
I4
sg16
I00
sg17
I00
sbS'4-None-cluster0'
p84
s(iplan_action
PlanAction
p85
(dp86
g3
g4
sg5
I00
sg6
g21
sg7
Nsg8
I01
sg9
I01
sg10
I00
sg11
(dp87
g13
(lp88
g4
aS'granola'
p89
assg15
I4
sg16
I00
sg17
I00
sbS'4-None-cluster0'
p90
s(iplan_action
PlanAction
p91
(dp92
g3
Nsg5
I00
sg6
g21
sg7
Nsg8
I01
sg9
I01
sg10
I00
sg11
(dp93
sg15
I6
sg16
I00
sg17
I00
sbS'6-None-None-f'
p94
s(iplan_action
PlanAction
p95
(dp96
g3
Nsg5
I00
sg6
g21
sg7
g4
sg8
I01
sg9
I01
sg10
I00
sg11
(dp97
sg15
I0
sg16
I00
sg17
I00
sbS'0-cluster0-None-f'
p98
s(iplan_action
PlanAction
p99
(dp100
g3
g4
sg5
I00
sg6
g4
sg7
g4
sg8
I01
sg9
I00
sg10
I00
sg11
(dp101
sg15
I1
sg16
I00
sg17
I00
sbS'1-cluster0-cluster0-f'
p102
s(iplan_action
PlanAction
p103
(dp104
g3
Nsg5
I00
sg6
g21
sg7
Nsg8
I01
sg9
I01
sg10
I00
sg11
(dp105
sg15
I7
sg16
I00
sg17
I00
sbS'7-None-None-f'
p106
s(iplan_action
PlanAction
p107
(dp108
g3
Nsg5
I00
sg6
g21
sg7
Nsg8
I01
sg9
I01
sg10
I00
sg11
(dp109
sg15
I5
sg16
I00
sg17
I00
sbS'5-None-None-f'
p110
sS'start'
p111
g111
s(iplan_action
PlanAction
p112
(dp113
g3
Nsg5
I00
sg6
g4
sg7
g4
sg8
I01
sg9
I00
sg10
I00
sg11
(dp114
g6
(lp115
g21
asg24
(lp116
S'open'
p117
asS'in_drawer'
p118
(lp119
g4
assg15
I2
sg16
I00
sg17
I00
sbS'2-cluster0-None'
p120
s(iplan_action
PlanAction
p121
(dp122
g3
g4
sg5
I00
sg6
g21
sg7
Nsg8
I01
sg9
I01
sg10
I00
sg11
(dp123
g13
(lp124
g4
ag4
asg41
(lp125
g4
assg15
I4
sg16
I00
sg17
I00
sbS'4-None-cluster0'
p126
s(iplan_action
PlanAction
p127
(dp128
g3
g4
sg5
I00
sg6
g4
sg7
g4
sg8
I01
sg9
I00
sg10
I00
sg11
(dp129
g13
(lp130
g4
ag4
ag4
assg15
I4
sg16
I01
sg17
I00
sbS'4-cluster0-cluster0'
p131
s(iplan_action
PlanAction
p132
(dp133
g3
g4
sg5
I00
sg6
g21
sg7
Nsg8
I01
sg9
I01
sg10
I00
sg11
(dp134
g13
(lp135
g4
assg15
I4
sg16
I00
sg17
I00
sbS'4-None-cluster0'
p136
s(iplan_action
PlanAction
p137
(dp138
g3
Nsg5
I00
sg6
g4
sg7
g4
sg8
I01
sg9
I00
sg10
I00
sg11
(dp139
g6
(lp140
g21
asg24
(lp141
S'open'
p142
asS'in_box'
p143
(lp144
g4
assg15
I2
sg16
I00
sg17
I00
sbS'2-cluster0-None'
p145
s(iplan_action
PlanAction
p146
(dp147
g3
g4
sg5
I00
sg6
g4
sg7
g4
sg8
I01
sg9
I00
sg10
I00
sg11
(dp148
g41
(lp149
g4
assg15
I4
sg16
I01
sg17
I00
sbS'4-cluster0-cluster0'
p150
s(iplan_action
PlanAction
p151
(dp152
g3
Nsg5
I00
sg6
g21
sg7
g4
sg8
I01
sg9
I01
sg10
I00
sg11
(dp153
g6
(lp154
g4
asg24
(lp155
S'closed'
p156
assg15
I0
sg16
I01
sg17
I00
sbS'0-cluster0-None'
p157
s(iplan_action
PlanAction
p158
(dp159
g3
g4
sg5
I00
sg6
g4
sg7
g4
sg8
I01
sg9
I00
sg10
I00
sg11
(dp160
g13
(lp161
g4
ag4
ag4
ag4
assg15
I4
sg16
I01
sg17
I00
sbS'4-cluster0-cluster0'
p162
s(iplan_action
PlanAction
p163
(dp164
g3
g4
sg5
I00
sg6
g4
sg7
g4
sg8
I01
sg9
I00
sg10
I00
sg11
(dp165
g6
(lp166
g21
asg24
(lp167
S'open'
p168
asg118
(lp169
g4
assg15
I1
sg16
I00
sg17
I00
sbS'1-cluster0-cluster0'
p170
s(iplan_action
PlanAction
p171
(dp172
g3
g4
sg5
I00
sg6
g21
sg7
Nsg8
I01
sg9
I01
sg10
I00
sg11
(dp173
g13
(lp174
g4
asg41
(lp175
g4
assg15
I4
sg16
I00
sg17
I00
sbS'4-None-cluster0'
p176
s(iplan_action
PlanAction
p177
(dp178
g3
Nsg5
I00
sg6
g4
sg7
g4
sg8
I01
sg9
I00
sg10
I00
sg11
(dp179
g6
(lp180
g21
asg24
(lp181
S'open'
p182
asg13
(lp183
g4
assg15
I2
sg16
I01
sg17
I00
sbS'2-cluster0-None'
p184
s(iplan_action
PlanAction
p185
(dp186
g3
Nsg5
I01
sg6
g4
sg7
g4
sg8
I01
sg9
I00
sg10
I00
sg11
(dp187
S'not_in_box'
p188
(lp189
g4
assg15
I5
sg16
I00
sg17
I00
sbS'5-cluster0-None'
p190
s(iplan_action
PlanAction
p191
(dp192
g3
g4
sg5
I00
sg6
g4
sg7
g4
sg8
I01
sg9
I00
sg10
I00
sg11
(dp193
sg15
I4
sg16
I01
sg17
I00
sbS'4-cluster0-cluster0-f'
p194
s(iplan_action
PlanAction
p195
(dp196
g3
g4
sg5
I00
sg6
g4
sg7
g4
sg8
I01
sg9
I00
sg10
I00
sg11
(dp197
g6
(lp198
g21
asg24
(lp199
S'open'
p200
asg143
(lp201
g4
assg15
I1
sg16
I00
sg17
I00
sbS'1-cluster0-cluster0'
p202
s(iplan_action
PlanAction
p203
(dp204
g3
g4
sg5
I01
sg6
g4
sg7
g4
sg8
I01
sg9
I00
sg10
I00
sg11
(dp205
g6
(lp206
g21
asg24
(lp207
S'open'
p208
asg188
(lp209
g4
asg118
(lp210
g4
assg15
I1
sg16
I00
sg17
I00
sbS'1-cluster0-cluster0'
p211
s(iplan_action
PlanAction
p212
(dp213
g3
Nsg5
I00
sg6
g4
sg7
g4
sg8
I01
sg9
I00
sg10
I00
sg11
(dp214
g6
(lp215
g21
asg24
(lp216
S'open'
p217
assg15
I2
sg16
I01
sg17
I00
sbS'2-cluster0-None'
p218
s(iplan_action
PlanAction
p219
(dp220
g3
g4
sg5
I00
sg6
g4
sg7
g4
sg8
I01
sg9
I00
sg10
I00
sg11
(dp221
g13
(lp222
g4
assg15
I4
sg16
I01
sg17
I00
sbS'4-cluster0-cluster0'
p223
s(iplan_action
PlanAction
p224
(dp225
g3
Nsg5
I00
sg6
g4
sg7
g4
sg8
I01
sg9
I00
sg10
I00
sg11
(dp226
g13
(lp227
g4
assg15
I7
sg16
I00
sg17
I00
sbS'7-cluster0-None'
p228
s(iplan_action
PlanAction
p229
(dp230
g3
g4
sg5
I00
sg6
g4
sg7
g4
sg8
I01
sg9
I00
sg10
I00
sg11
(dp231
g13
(lp232
g4
asS'open'
p233
(lp234
g4
assg15
I4
sg16
I00
sg17
I00
sbS'4-cluster0-cluster0'
p235
s(iplan_action
PlanAction
p236
(dp237
g3
Nsg5
I00
sg6
g21
sg7
Nsg8
I01
sg9
I01
sg10
I00
sg11
(dp238
sg15
I2
sg16
I00
sg17
I00
sbS'2-None-None-f'
p239
s(iplan_action
PlanAction
p240
(dp241
g3
g4
sg5
I00
sg6
g4
sg7
g4
sg8
I01
sg9
I00
sg10
I00
sg11
(dp242
sg15
I1
sg16
I01
sg17
I00
sbS'1-cluster0-cluster0-f'
p243
s(iplan_action
PlanAction
p244
(dp245
g3
Nsg5
I00
sg6
g21
sg7
g4
sg8
I01
sg9
I01
sg10
I00
sg11
(dp246
g6
(lp247
g4
asg24
(lp248
S'closed'
p249
assg15
I0
sg16
I00
sg17
I00
sbS'0-cluster0-None'
p250
s(iplan_action
PlanAction
p251
(dp252
g3
g4
sg5
I00
sg6
g4
sg7
g4
sg8
I01
sg9
I00
sg10
I00
sg11
(dp253
g233
(lp254
g4
assg15
I4
sg16
I00
sg17
I00
sbS'4-cluster0-cluster0'
p255
s(iplan_action
PlanAction
p256
(dp257
g3
Nsg5
I00
sg6
g4
sg7
g4
sg8
I01
sg9
I00
sg10
I00
sg11
(dp258
g6
(lp259
g21
asg24
(lp260
S'open'
p261
asg13
(lp262
g4
assg15
I2
sg16
I00
sg17
I00
sbS'2-cluster0-None'
p263
s(iplan_action
PlanAction
p264
(dp265
g3
g4
sg5
I00
sg6
g4
sg7
g4
sg8
I01
sg9
I00
sg10
I00
sg11
(dp266
g6
(lp267
g21
asg24
(lp268
S'open'
p269
asg233
(lp270
g4
assg15
I1
sg16
I00
sg17
I00
sbS'1-cluster0-cluster0'
p271
s(iplan_action
PlanAction
p272
(dp273
g3
g4
sg5
I00
sg6
g21
sg7
Nsg8
I01
sg9
I01
sg10
I00
sg11
(dp274
g118
(lp275
g4
ag4
assg15
I4
sg16
I00
sg17
I00
sbS'4-None-cluster0'
p276
s(iplan_action
PlanAction
p277
(dp278
g3
g4
sg5
I00
sg6
g4
sg7
g4
sg8
I01
sg9
I00
sg10
I00
sg11
(dp279
g6
(lp280
g21
asg24
(lp281
S'open'
p282
asg13
(lp283
g4
assg15
I1
sg16
I00
sg17
I00
sbS'1-cluster0-cluster0'
p284
s(iplan_action
PlanAction
p285
(dp286
g3
g4
sg5
I00
sg6
g21
sg7
Nsg8
I01
sg9
I01
sg10
I00
sg11
(dp287
sg15
I4
sg16
I00
sg17
I00
sbS'4-None-cluster0-f'
p288
s(iplan_action
PlanAction
p289
(dp290
g3
Nsg5
I01
sg6
g4
sg7
g4
sg8
I01
sg9
I00
sg10
I00
sg11
(dp291
g13
(lp292
g4
assg15
I5
sg16
I00
sg17
I00
sbS'5-cluster0-None'
p293
s(iplan_action
PlanAction
p294
(dp295
g3
g4
sg5
I00
sg6
g4
sg7
g4
sg8
I01
sg9
I00
sg10
I00
sg11
(dp296
g13
(lp297
g4
asg118
(lp298
g4
assg15
I4
sg16
I00
sg17
I00
sbS'4-cluster0-cluster0'
p299
s.