(dp0
(iplan_action
PlanAction
p1
(dp2
S'target'
p3
S'table'
p4
sS'object_in_box'
p5
I00
sS'object_in_gripper'
p6
S'lid'
p7
sS'object'
p8
g7
sS'target_open'
p9
I01
sS'gripper_open'
p10
I00
sS'object_on_lid'
p11
I00
sS'effects'
p12
(dp13
g6
(lp14
S''
p15
asS'change_gripper'
p16
(lp17
S'open'
p18
asS'open'
p19
(lp20
S'box'
p21
assS'action'
p22
I1
sS'object_open'
p23
I00
sS'object_in_drawer'
p24
I00
sbS'1-lid-table'
p25
s(iplan_action
PlanAction
p26
(dp27
g3
Nsg5
I00
sg6
g15
sg8
S'cluster0'
p28
sg9
I01
sg10
I01
sg11
I00
sg12
(dp29
g6
(lp30
g28
asg16
(lp31
S'closed'
p32
assg22
I3
sg23
I00
sg24
I00
sbS'3-cluster0-None'
p33
s(iplan_action
PlanAction
p34
(dp35
g3
S'drawer'
p36
sg5
I00
sg6
g28
sg8
g28
sg9
I01
sg10
I00
sg11
I00
sg12
(dp37
g6
(lp38
g15
asg16
(lp39
S'open'
p40
asS'in_drawer'
p41
(lp42
g28
assg22
I1
sg23
I00
sg24
I00
sbS'1-cluster0-drawer'
p43
s(iplan_action
PlanAction
p44
(dp45
g3
Nsg5
I00
sg6
g15
sg8
S'apple'
p46
sg9
I01
sg10
I01
sg11
I00
sg12
(dp47
sg22
I0
sg23
I00
sg24
I00
sbS'0-apple-None-f'
p48
s(iplan_action
PlanAction
p49
(dp50
g3
g21
sg5
I00
sg6
g46
sg8
g46
sg9
I01
sg10
I00
sg11
I00
sg12
(dp51
S'moved'
p52
(lp53
g46
assg22
I4
sg23
I00
sg24
I00
sbS'4-apple-box'
p54
s(iplan_action
PlanAction
p55
(dp56
g3
g4
sg5
I00
sg6
g15
sg8
Nsg9
I01
sg10
I01
sg11
I00
sg12
(dp57
g52
(lp58
g28
aS'granola'
p59
assg22
I4
sg23
I00
sg24
I00
sbS'4-None-table'
p60
s(iplan_action
PlanAction
p61
(dp62
g3
S'stack'
p63
sg5
I00
sg6
g15
sg8
Nsg9
I01
sg10
I01
sg11
I00
sg12
(dp64
g52
(lp65
g28
ag28
asS'closed'
p66
(lp67
g36
assg22
I4
sg23
I00
sg24
I00
sbS'4-None-stack'
p68
s(iplan_action
PlanAction
p69
(dp70
g3
g4
sg5
I00
sg6
g7
sg8
g7
sg9
I01
sg10
I00
sg11
I00
sg12
(dp71
g19
(lp72
g21
assg22
I4
sg23
I00
sg24
I00
sbS'4-lid-table'
p73
s(iplan_action
PlanAction
p74
(dp75
g3
Nsg5
I00
sg6
g15
sg8
g7
sg9
I01
sg10
I01
sg11
I00
sg12
(dp76
g6
(lp77
g7
asg16
(lp78
S'closed'
p79
assg22
I0
sg23
I00
sg24
I00
sbS'0-lid-None'
p80
s(iplan_action
PlanAction
p81
(dp82
g3
g4
sg5
I00
sg6
g7
sg8
g7
sg9
I01
sg10
I00
sg11
I00
sg12
(dp83
g52
(lp84
g7
assg22
I4
sg23
I01
sg24
I00
sbS'4-lid-table'
p85
s(iplan_action
PlanAction
p86
(dp87
g3
Nsg5
I00
sg6
g7
sg8
g7
sg9
I01
sg10
I00
sg11
I00
sg12
(dp88
g6
(lp89
g15
asg16
(lp90
S'open'
p91
assg22
I2
sg23
I01
sg24
I00
sbS'2-lid-None'
p92
s(iplan_action
PlanAction
p93
(dp94
g3
Nsg5
I00
sg6
g15
sg8
g46
sg9
I01
sg10
I01
sg11
I00
sg12
(dp95
g6
(lp96
g46
asg16
(lp97
S'closed'
p98
assg22
I3
sg23
I00
sg24
I00
sbS'3-apple-None'
p99
s(iplan_action
PlanAction
p100
(dp101
g3
g21
sg5
I00
sg6
g7
sg8
g7
sg9
I01
sg10
I00
sg11
I00
sg12
(dp102
sg22
I1
sg23
I01
sg24
I00
sbS'1-lid-box-f'
p103
s(iplan_action
PlanAction
p104
(dp105
g3
g63
sg5
I00
sg6
g15
sg8
Nsg9
I01
sg10
I01
sg11
I00
sg12
(dp106
sg22
I4
sg23
I00
sg24
I00
sbS'4-None-stack-f'
p107
s(iplan_action
PlanAction
p108
(dp109
g3
g4
sg5
I00
sg6
g15
sg8
Nsg9
I01
sg10
I01
sg11
I00
sg12
(dp110
g52
(lp111
g46
ag28
assg22
I4
sg23
I00
sg24
I00
sbS'4-None-table'
p112
s(iplan_action
PlanAction
p113
(dp114
g3
Nsg5
I00
sg6
g15
sg8
g28
sg9
I01
sg10
I01
sg11
I00
sg12
(dp115
g6
(lp116
g28
asg16
(lp117
S'closed'
p118
assg22
I0
sg23
I00
sg24
I00
sbS'0-cluster0-None'
p119
s(iplan_action
PlanAction
p120
(dp121
g3
Nsg5
I00
sg6
g7
sg8
g7
sg9
I01
sg10
I00
sg11
I00
sg12
(dp122
g52
(lp123
g7
assg22
I5
sg23
I01
sg24
I00
sbS'5-lid-None'
p124
s(iplan_action
PlanAction
p125
(dp126
g3
S'handle'
p127
sg5
I00
sg6
g15
sg8
Nsg9
I01
sg10
I01
sg11
I00
sg12
(dp128
sg22
I4
sg23
I00
sg24
I00
sbS'4-None-handle-f'
p129
s(iplan_action
PlanAction
p130
(dp131
g3
g4
sg5
I00
sg6
g46
sg8
g46
sg9
I01
sg10
I00
sg11
I00
sg12
(dp132
g6
(lp133
g15
asg16
(lp134
S'open'
p135
asg52
(lp136
g46
assg22
I1
sg23
I00
sg24
I00
sbS'1-apple-table'
p137
s(iplan_action
PlanAction
p138
(dp139
g3
g28
sg5
I00
sg6
g15
sg8
Nsg9
I01
sg10
I01
sg11
I00
sg12
(dp140
sg22
I4
sg23
I00
sg24
I00
sbS'4-None-cluster0-f'
p141
s(iplan_action
PlanAction
p142
(dp143
g3
Nsg5
I01
sg6
g28
sg8
g28
sg9
I01
sg10
I00
sg11
I00
sg12
(dp144
g52
(lp145
g28
assg22
I5
sg23
I00
sg24
I00
sbS'5-cluster0-None'
p146
s(iplan_action
PlanAction
p147
(dp148
g3
g63
sg5
I00
sg6
g7
sg8
g7
sg9
I01
sg10
I00
sg11
I00
sg12
(dp149
g6
(lp150
g15
asg16
(lp151
S'open'
p152
asg19
(lp153
g21
assg22
I1
sg23
I00
sg24
I00
sbS'1-lid-stack'
p154
s(iplan_action
PlanAction
p155
(dp156
g3
g36
sg5
I00
sg6
g15
sg8
Nsg9
I01
sg10
I01
sg11
I00
sg12
(dp157
g52
(lp158
g28
ag28
asg66
(lp159
g36
assg22
I4
sg23
I00
sg24
I00
sbS'4-None-drawer'
p160
s(iplan_action
PlanAction
p161
(dp162
g3
Nsg5
I00
sg6
g15
sg8
g7
sg9
I01
sg10
I01
sg11
I00
sg12
(dp163
g6
(lp164
g7
asg16
(lp165
S'closed'
p166
assg22
I0
sg23
I01
sg24
I00
sbS'0-lid-None'
p167
s(iplan_action
PlanAction
p168
(dp169
g3
g7
sg5
I00
sg6
g7
sg8
g7
sg9
I01
sg10
I00
sg11
I00
sg12
(dp170
sg22
I4
sg23
I01
sg24
I00
sbS'4-lid-lid-f'
p171
s(iplan_action
PlanAction
p172
(dp173
g3
Nsg5
I00
sg6
g28
sg8
g28
sg9
I01
sg10
I00
sg11
I00
sg12
(dp174
sg22
I7
sg23
I00
sg24
I00
sbS'7-cluster0-None-f'
p175
s(iplan_action
PlanAction
p176
(dp177
g3
g36
sg5
I00
sg6
g28
sg8
g28
sg9
I01
sg10
I00
sg11
I00
sg12
(dp178
sg22
I1
sg23
I00
sg24
I00
sbS'1-cluster0-drawer-f'
p179
s(iplan_action
PlanAction
p180
(dp181
g3
Nsg5
I00
sg6
g28
sg8
g28
sg9
I01
sg10
I00
sg11
I00
sg12
(dp182
g52
(lp183
g28
assg22
I5
sg23
I00
sg24
I00
sbS'5-cluster0-None'
p184
s(iplan_action
PlanAction
p185
(dp186
g3
Nsg5
I00
sg6
g15
sg8
g36
sg9
I01
sg10
I01
sg11
I00
sg12
(dp187
sg22
I0
sg23
I00
sg24
I00
sbS'0-drawer-None-f'
p188
s(iplan_action
PlanAction
p189
(dp190
g3
Nsg5
I00
sg6
g15
sg8
Nsg9
I01
sg10
I01
sg11
I00
sg12
(dp191
sg22
I6
sg23
I00
sg24
I00
sbS'6-None-None-f'
p192
s(iplan_action
PlanAction
p193
(dp194
g3
g63
sg5
I00
sg6
g15
sg8
Nsg9
I01
sg10
I01
sg11
I00
sg12
(dp195
g52
(lp196
g28
asg66
(lp197
g36
assg22
I4
sg23
I00
sg24
I00
sbS'4-None-stack'
p198
s(iplan_action
PlanAction
p199
(dp200
g3
g21
sg5
I00
sg6
g46
sg8
g46
sg9
I01
sg10
I00
sg11
I00
sg12
(dp201
sg22
I1
sg23
I00
sg24
I00
sbS'1-apple-box-f'
p202
s(iplan_action
PlanAction
p203
(dp204
g3
g63
sg5
I00
sg6
g15
sg8
Nsg9
I00
sg10
I01
sg11
I00
sg12
(dp205
sg22
I4
sg23
I00
sg24
I00
sbS'4-None-stack-f'
p206
s(iplan_action
PlanAction
p207
(dp208
g3
Nsg5
I00
sg6
g15
sg8
Nsg9
I01
sg10
I01
sg11
I00
sg12
(dp209
sg22
I5
sg23
I00
sg24
I00
sbS'5-None-None-f'
p210
s(iplan_action
PlanAction
p211
(dp212
g3
Nsg5
I00
sg6
g36
sg8
g36
sg9
I01
sg10
I00
sg11
I00
sg12
(dp213
g6
(lp214
g15
asg16
(lp215
S'open'
p216
assg22
I2
sg23
I01
sg24
I00
sbS'2-drawer-None'
p217
s(iplan_action
PlanAction
p218
(dp219
g3
Nsg5
I00
sg6
g28
sg8
g28
sg9
I01
sg10
I00
sg11
I00
sg12
(dp220
g6
(lp221
g15
asg16
(lp222
S'open'
p223
asg41
(lp224
g28
assg22
I2
sg23
I00
sg24
I00
sbS'2-cluster0-None'
p225
s(iplan_action
PlanAction
p226
(dp227
g3
g63
sg5
I00
sg6
g36
sg8
g36
sg9
I01
sg10
I00
sg11
I00
sg12
(dp228
g52
(lp229
g28
ag28
asg66
(lp230
g36
assg22
I4
sg23
I01
sg24
I00
sbS'4-drawer-stack'
p231
s(iplan_action
PlanAction
p232
(dp233
g3
Nsg5
I00
sg6
g7
sg8
g7
sg9
I01
sg10
I00
sg11
I00
sg12
(dp234
g6
(lp235
g15
asg16
(lp236
S'open'
p237
assg22
I2
sg23
I00
sg24
I00
sbS'2-lid-None'
p238
s(iplan_action
PlanAction
p239
(dp240
g3
Nsg5
I00
sg6
g36
sg8
g36
sg9
I01
sg10
I00
sg11
I00
sg12
(dp241
g6
(lp242
g15
asg16
(lp243
S'open'
p244
assg22
I2
sg23
I00
sg24
I00
sbS'2-drawer-None'
p245
s(iplan_action
PlanAction
p246
(dp247
g3
g4
sg5
I00
sg6
g36
sg8
g36
sg9
I01
sg10
I00
sg11
I00
sg12
(dp248
g52
(lp249
g28
asg19
(lp250
g36
assg22
I4
sg23
I00
sg24
I00
sbS'4-drawer-table'
p251
s(iplan_action
PlanAction
p252
(dp253
g3
g36
sg5
I00
sg6
g15
sg8
Nsg9
I01
sg10
I01
sg11
I00
sg12
(dp254
sg22
I4
sg23
I00
sg24
I00
sbS'4-None-drawer-f'
p255
s(iplan_action
PlanAction
p256
(dp257
g3
g4
sg5
I00
sg6
g36
sg8
g36
sg9
I01
sg10
I00
sg11
I00
sg12
(dp258
g52
(lp259
g36
ag127
assg22
I4
sg23
I01
sg24
I00
sbS'4-drawer-table'
p260
s(iplan_action
PlanAction
p261
(dp262
g3
Nsg5
I00
sg6
g15
sg8
g36
sg9
I01
sg10
I01
sg11
I00
sg12
(dp263
g6
(lp264
g36
asg16
(lp265
S'closed'
p266
assg22
I0
sg23
I01
sg24
I00
sbS'0-drawer-None'
p267
s(iplan_action
PlanAction
p268
(dp269
g3
g36
sg5
I00
sg6
g15
sg8
Nsg9
I01
sg10
I01
sg11
I00
sg12
(dp270
g41
(lp271
g28
ag28
assg22
I4
sg23
I00
sg24
I00
sbS'4-None-drawer'
p272
s(iplan_action
PlanAction
p273
(dp274
g3
g4
sg5
I00
sg6
g15
sg8
Nsg9
I01
sg10
I01
sg11
I00
sg12
(dp275
g52
(lp276
g28
assg22
I4
sg23
I00
sg24
I00
sbS'4-None-table'
p277
s(iplan_action
PlanAction
p278
(dp279
g3
g21
sg5
I00
sg6
g46
sg8
g46
sg9
I01
sg10
I00
sg11
I00
sg12
(dp280
g6
(lp281
g15
asg16
(lp282
S'open'
p283
asS'in_box'
p284
(lp285
g46
assg22
I1
sg23
I00
sg24
I00
sbS'1-apple-box'
p286
s(iplan_action
PlanAction
p287
(dp288
g3
g21
sg5
I00
sg6
g7
sg8
g7
sg9
I01
sg10
I00
sg11
I00
sg12
(dp289
g6
(lp290
g15
asg16
(lp291
S'open'
p292
asg66
(lp293
g21
assg22
I1
sg23
I01
sg24
I00
sbS'1-lid-box'
p294
s(iplan_action
PlanAction
p295
(dp296
g3
Nsg5
I01
sg6
g15
sg8
g28
sg9
I01
sg10
I01
sg11
I00
sg12
(dp297
g6
(lp298
g28
asg16
(lp299
S'closed'
p300
assg22
I3
sg23
I00
sg24
I00
sbS'3-cluster0-None'
p301
s(iplan_action
PlanAction
p302
(dp303
g3
g21
sg5
I00
sg6
g7
sg8
g7
sg9
I01
sg10
I00
sg11
I00
sg12
(dp304
g66
(lp305
g21
assg22
I4
sg23
I01
sg24
I00
sbS'4-lid-box'
p306
s(iplan_action
PlanAction
p307
(dp308
g3
g36
sg5
I00
sg6
g28
sg8
g28
sg9
I01
sg10
I00
sg11
I00
sg12
(dp309
g52
(lp310
g28
asg41
(lp311
g28
assg22
I4
sg23
I00
sg24
I00
sbS'4-cluster0-drawer'
p312
s(iplan_action
PlanAction
p313
(dp314
g3
Nsg5
I00
sg6
g15
sg8
g36
sg9
I01
sg10
I01
sg11
I00
sg12
(dp315
sg22
I0
sg23
I01
sg24
I00
sbS'0-drawer-None-f'
p316
sS'start'
p317
g317
s(iplan_action
PlanAction
p318
(dp319
g3
Nsg5
I00
sg6
g15
sg8
g36
sg9
I01
sg10
I01
sg11
I00
sg12
(dp320
g6
(lp321
g36
asg16
(lp322
S'closed'
p323
assg22
I0
sg23
I00
sg24
I00
sbS'0-drawer-None'
p324
s(iplan_action
PlanAction
p325
(dp326
g3
Nsg5
I00
sg6
g7
sg8
g7
sg9
I01
sg10
I00
sg11
I00
sg12
(dp327
g6
(lp328
g15
asg16
(lp329
S'open'
p330
asg52
(lp331
g7
assg22
I2
sg23
I00
sg24
I00
sbS'2-lid-None'
p332
s(iplan_action
PlanAction
p333
(dp334
g3
g7
sg5
I00
sg6
g7
sg8
g7
sg9
I00
sg10
I00
sg11
I00
sg12
(dp335
g19
(lp336
g21
assg22
I4
sg23
I00
sg24
I00
sbS'4-lid-lid'
p337
s(iplan_action
PlanAction
p338
(dp339
g3
g46
sg5
I00
sg6
g15
sg8
Nsg9
I01
sg10
I01
sg11
I00
sg12
(dp340
sg22
I4
sg23
I00
sg24
I00
sbS'4-None-apple-f'
p341
s(iplan_action
PlanAction
p342
(dp343
g3
Nsg5
I00
sg6
g15
sg8
g7
sg9
I01
sg10
I01
sg11
I00
sg12
(dp344
sg22
I0
sg23
I01
sg24
I00
sbS'0-lid-None-f'
p345
s(iplan_action
PlanAction
p346
(dp347
g3
Nsg5
I01
sg6
g28
sg8
g28
sg9
I01
sg10
I00
sg11
I00
sg12
(dp348
S'not_in_box'
p349
(lp350
g28
assg22
I5
sg23
I00
sg24
I00
sbS'5-cluster0-None'
p351
s(iplan_action
PlanAction
p352
(dp353
g3
Nsg5
I01
sg6
g15
sg8
g28
sg9
I01
sg10
I01
sg11
I00
sg12
(dp354
g6
(lp355
g28
asg16
(lp356
S'closed'
p357
assg22
I0
sg23
I00
sg24
I00
sbS'0-cluster0-None'
p358
s(iplan_action
PlanAction
p359
(dp360
g3
g7
sg5
I00
sg6
g7
sg8
g7
sg9
I01
sg10
I00
sg11
I00
sg12
(dp361
g52
(lp362
g7
assg22
I4
sg23
I01
sg24
I00
sbS'4-lid-lid'
p363
s(iplan_action
PlanAction
p364
(dp365
g3
g36
sg5
I01
sg6
g28
sg8
g28
sg9
I01
sg10
I00
sg11
I00
sg12
(dp366
g6
(lp367
g15
asg16
(lp368
S'open'
p369
asg349
(lp370
g28
asg41
(lp371
g28
assg22
I1
sg23
I00
sg24
I00
sbS'1-cluster0-drawer'
p372
s(iplan_action
PlanAction
p373
(dp374
g3
Nsg5
I00
sg6
g46
sg8
g46
sg9
I01
sg10
I00
sg11
I00
sg12
(dp375
g52
(lp376
g46
assg22
I5
sg23
I00
sg24
I00
sbS'5-apple-None'
p377
s(iplan_action
PlanAction
p378
(dp379
g3
g4
sg5
I00
sg6
g28
sg8
g28
sg9
I01
sg10
I00
sg11
I00
sg12
(dp380
g52
(lp381
g28
assg22
I4
sg23
I00
sg24
I00
sbS'4-cluster0-table'
p382
s(iplan_action
PlanAction
p383
(dp384
g3
g21
sg5
I00
sg6
g15
sg8
Nsg9
I01
sg10
I01
sg11
I00
sg12
(dp385
sg22
I4
sg23
I00
sg24
I00
sbS'4-None-box-f'
p386
s(iplan_action
PlanAction
p387
(dp388
g3
Nsg5
I00
sg6
g28
sg8
g28
sg9
I01
sg10
I00
sg11
I00
sg12
(dp389
g6
(lp390
g15
asg16
(lp391
S'open'
p392
assg22
I2
sg23
I00
sg24
I00
sbS'2-cluster0-None'
p393
s(iplan_action
PlanAction
p394
(dp395
g3
g36
sg5
I00
sg6
g36
sg8
g36
sg9
I01
sg10
I00
sg11
I00
sg12
(dp396
g52
(lp397
g28
ag28
asg66
(lp398
g36
assg22
I4
sg23
I01
sg24
I00
sbS'4-drawer-drawer'
p399
s(iplan_action
PlanAction
p400
(dp401
g3
g36
sg5
I00
sg6
g28
sg8
g28
sg9
I01
sg10
I00
sg11
I00
sg12
(dp402
g52
(lp403
g28
assg22
I4
sg23
I00
sg24
I00
sbS'4-cluster0-drawer'
p404
s(iplan_action
PlanAction
p405
(dp406
g3
Nsg5
I00
sg6
g15
sg8
g7
sg9
I01
sg10
I01
sg11
I00
sg12
(dp407
g6
(lp408
g7
asg16
(lp409
S'closed'
p410
assg22
I3
sg23
I00
sg24
I00
sbS'3-lid-None'
p411
s(iplan_action
PlanAction
p412
(dp413
g3
Nsg5
I00
sg6
g15
sg8
g28
sg9
I01
sg10
I01
sg11
I00
sg12
(dp414
sg22
I0
sg23
I00
sg24
I00
sbS'0-cluster0-None-f'
p415
s(iplan_action
PlanAction
p416
(dp417
g3
Nsg5
I00
sg6
g46
sg8
g46
sg9
I01
sg10
I00
sg11
I00
sg12
(dp418
g52
(lp419
g46
assg22
I7
sg23
I00
sg24
I00
sbS'7-apple-None'
p420
s(iplan_action
PlanAction
p421
(dp422
g3
Nsg5
I00
sg6
g15
sg8
Nsg9
I01
sg10
I01
sg11
I00
sg12
(dp423
sg22
I7
sg23
I00
sg24
I00
sbS'7-None-None-f'
p424
s(iplan_action
PlanAction
p425
(dp426
g3
g63
sg5
I00
sg6
g28
sg8
g28
sg9
I01
sg10
I00
sg11
I00
sg12
(dp427
g6
(lp428
g15
asg16
(lp429
S'open'
p430
asg52
(lp431
g28
assg22
I1
sg23
I00
sg24
I00
sbS'1-cluster0-stack'
p432
s(iplan_action
PlanAction
p433
(dp434
g3
Nsg5
I00
sg6
g15
sg8
S'li'
p435
sg9
I01
sg10
I01
sg11
I00
sg12
(dp436
sg22
I0
sg23
I00
sg24
I00
sbS'0-li-None-f'
p437
s(iplan_action
PlanAction
p438
(dp439
g3
Nsg5
I00
sg6
g46
sg8
g46
sg9
I01
sg10
I00
sg11
I00
sg12
(dp440
g6
(lp441
g15
asg16
(lp442
S'open'
p443
asg284
(lp444
g46
assg22
I2
sg23
I00
sg24
I00
sbS'2-apple-None'
p445
s(iplan_action
PlanAction
p446
(dp447
g3
Nsg5
I00
sg6
g15
sg8
g46
sg9
I01
sg10
I01
sg11
I00
sg12
(dp448
g6
(lp449
g46
asg16
(lp450
S'closed'
p451
assg22
I0
sg23
I00
sg24
I00
sbS'0-apple-None'
p452
s(iplan_action
PlanAction
p453
(dp454
g3
g63
sg5
I00
sg6
g36
sg8
g36
sg9
I01
sg10
I00
sg11
I00
sg12
(dp455
g52
(lp456
g28
ag28
ag36
ag127
assg22
I4
sg23
I01
sg24
I00
sbS'4-drawer-stack'
p457
s(iplan_action
PlanAction
p458
(dp459
g3
g63
sg5
I00
sg6
g28
sg8
g28
sg9
I01
sg10
I00
sg11
I00
sg12
(dp460
sg22
I1
sg23
I00
sg24
I00
sbS'1-cluster0-stack-f'
p461
s(iplan_action
PlanAction
p462
(dp463
g3
g7
sg5
I00
sg6
g15
sg8
Nsg9
I00
sg10
I01
sg11
I00
sg12
(dp464
sg22
I4
sg23
I00
sg24
I00
sbS'4-None-lid-f'
p465
s(iplan_action
PlanAction
p466
(dp467
g3
g4
sg5
I00
sg6
g36
sg8
g36
sg9
I01
sg10
I00
sg11
I00
sg12
(dp468
g52
(lp469
g28
ag36
ag127
assg22
I4
sg23
I01
sg24
I00
sbS'4-drawer-table'
p470
s(iplan_action
PlanAction
p471
(dp472
g3
g4
sg5
I00
sg6
g36
sg8
g36
sg9
I01
sg10
I00
sg11
I00
sg12
(dp473
g19
(lp474
g36
assg22
I4
sg23
I00
sg24
I00
sbS'4-drawer-table'
p475
s(iplan_action
PlanAction
p476
(dp477
g3
Nsg5
I00
sg6
g28
sg8
g28
sg9
I01
sg10
I00
sg11
I00
sg12
(dp478
g52
(lp479
g28
assg22
I7
sg23
I00
sg24
I00
sbS'7-cluster0-None'
p480
s(iplan_action
PlanAction
p481
(dp482
g3
Nsg5
I00
sg6
g15
sg8
g7
sg9
I01
sg10
I01
sg11
I00
sg12
(dp483
sg22
I0
sg23
I00
sg24
I00
sbS'0-lid-None-f'
p484
s(iplan_action
PlanAction
p485
(dp486
g3
g36
sg5
I00
sg6
g36
sg8
g36
sg9
I01
sg10
I00
sg11
I00
sg12
(dp487
g66
(lp488
g36
assg22
I4
sg23
I01
sg24
I00
sbS'4-drawer-drawer'
p489
s(iplan_action
PlanAction
p490
(dp491
g3
Nsg5
I00
sg6
g15
sg8
Nsg9
I01
sg10
I01
sg11
I00
sg12
(dp492
sg22
I2
sg23
I00
sg24
I00
sbS'2-None-None-f'
p493
s(iplan_action
PlanAction
p494
(dp495
g3
g4
sg5
I00
sg6
g15
sg8
Nsg9
I01
sg10
I01
sg11
I00
sg12
(dp496
sg22
I4
sg23
I00
sg24
I00
sbS'4-None-table-f'
p497
s(iplan_action
PlanAction
p498
(dp499
g3
g63
sg5
I00
sg6
g28
sg8
g28
sg9
I01
sg10
I00
sg11
I00
sg12
(dp500
g6
(lp501
g15
asg16
(lp502
S'open'
p503
asg41
(lp504
g28
assg22
I1
sg23
I00
sg24
I00
sbS'1-cluster0-stack'
p505
s(iplan_action
PlanAction
p506
(dp507
g3
Nsg5
I00
sg6
g7
sg8
g7
sg9
I01
sg10
I00
sg11
I00
sg12
(dp508
g6
(lp509
g15
asg16
(lp510
S'open'
p511
asg52
(lp512
g7
assg22
I2
sg23
I01
sg24
I00
sbS'2-lid-None'
p513
s.