(lp0
(iplan_action
PlanAction
p1
(dp2
S'target'
p3
NsS'object_in_box'
p4
I00
sS'object_in_gripper'
p5
S''
p6
sS'object'
p7
S'lid'
p8
sS'target_open'
p9
I01
sS'gripper_open'
p10
I01
sS'object_on_lid'
p11
I00
sS'effects'
p12
(dp13
g5
(lp14
S'lid'
p15
asS'change_gripper'
p16
(lp17
S'closed'
p18
assS'action'
p19
I0
sS'object_open'
p20
I00
sS'object_in_drawer'
p21
I00
sba(iplan_action
PlanAction
p22
(dp23
g3
S'table'
p24
sg4
I00
sg5
S'lid'
p25
sg7
S'lid'
p26
sg9
I01
sg10
I00
sg11
I00
sg12
(dp27
g5
(lp28
g6
asg16
(lp29
S'open'
p30
asg30
(lp31
S'box'
p32
assg19
I1
sg20
I00
sg21
I00
sba(iplan_action
PlanAction
p33
(dp34
g3
Nsg4
I00
sg5
g6
sg7
S'apple'
p35
sg9
I01
sg10
I01
sg11
I00
sg12
(dp36
sg19
I0
sg20
I00
sg21
I00
sba(iplan_action
PlanAction
p37
(dp38
g3
Nsg4
I00
sg5
g6
sg7
Nsg9
I01
sg10
I01
sg11
I00
sg12
(dp39
sg19
I5
sg20
I00
sg21
I00
sba(iplan_action
PlanAction
p40
(dp41
g3
Nsg4
I00
sg5
g6
sg7
S'apple'
p42
sg9
I01
sg10
I01
sg11
I00
sg12
(dp43
g5
(lp44
S'apple'
p45
asg16
(lp46
g18
assg19
I0
sg20
I00
sg21
I00
sba(iplan_action
PlanAction
p47
(dp48
g3
S'box'
p49
sg4
I00
sg5
S'apple'
p50
sg7
S'apple'
p51
sg9
I01
sg10
I00
sg11
I00
sg12
(dp52
g5
(lp53
g6
asg16
(lp54
g30
asS'in_box'
p55
(lp56
S'apple'
p57
assg19
I1
sg20
I00
sg21
I00
sba(iplan_action
PlanAction
p58
(dp59
g3
Nsg4
I00
sg5
g6
sg7
S'lid'
p60
sg9
I01
sg10
I01
sg11
I00
sg12
(dp61
sg19
I0
sg20
I01
sg21
I00
sba(iplan_action
PlanAction
p62
(dp63
g3
Nsg4
I00
sg5
g6
sg7
S'lid'
p64
sg9
I01
sg10
I01
sg11
I00
sg12
(dp65
g5
(lp66
S'lid'
p67
asg16
(lp68
g18
assg19
I0
sg20
I01
sg21
I00
sba(iplan_action
PlanAction
p69
(dp70
g3
Nsg4
I00
sg5
S'lid'
p71
sg7
S'lid'
p72
sg9
I01
sg10
I00
sg11
I00
sg12
(dp73
S'moved'
p74
(lp75
S'lid'
p76
assg19
I5
sg20
I01
sg21
I00
sba(iplan_action
PlanAction
p77
(dp78
g3
S'box'
p79
sg4
I00
sg5
S'lid'
p80
sg7
S'lid'
p81
sg9
I01
sg10
I00
sg11
I00
sg12
(dp82
g18
(lp83
g32
assg19
I4
sg20
I01
sg21
I00
sba(iplan_action
PlanAction
p84
(dp85
g3
Nsg4
I00
sg5
S'lid'
p86
sg7
S'lid'
p87
sg9
I01
sg10
I00
sg11
I00
sg12
(dp88
g5
(lp89
g6
asg16
(lp90
g30
assg19
I2
sg20
I00
sg21
I00
sba(iplan_action
PlanAction
p91
(dp92
g3
Nsg4
I00
sg5
g6
sg7
S'drawer'
p93
sg9
I01
sg10
I01
sg11
I00
sg12
(dp94
sg19
I0
sg20
I00
sg21
I00
sba(iplan_action
PlanAction
p95
(dp96
g3
Nsg4
I00
sg5
g6
sg7
Nsg9
I01
sg10
I01
sg11
I00
sg12
(dp97
sg19
I7
sg20
I00
sg21
I00
sba(iplan_action
PlanAction
p98
(dp99
g3
S'stack'
p100
sg4
I00
sg5
g6
sg7
Nsg9
I00
sg10
I01
sg11
I00
sg12
(dp101
sg19
I4
sg20
I00
sg21
I00
sba(iplan_action
PlanAction
p102
(dp103
g3
Nsg4
I00
sg5
g6
sg7
S'drawer'
p104
sg9
I01
sg10
I01
sg11
I00
sg12
(dp105
g5
(lp106
S'drawer'
p107
asg16
(lp108
g18
assg19
I0
sg20
I00
sg21
I00
sba(iplan_action
PlanAction
p109
(dp110
g3
S'table'
p111
sg4
I00
sg5
S'drawer'
p112
sg7
S'drawer'
p113
sg9
I01
sg10
I00
sg11
I00
sg12
(dp114
g30
(lp115
S'drawer'
p116
assg19
I4
sg20
I00
sg21
I00
sba(iplan_action
PlanAction
p117
(dp118
g3
Nsg4
I00
sg5
S'drawer'
p119
sg7
S'drawer'
p120
sg9
I01
sg10
I00
sg11
I00
sg12
(dp121
g5
(lp122
g6
asg16
(lp123
g30
assg19
I2
sg20
I01
sg21
I00
sba(iplan_action
PlanAction
p124
(dp125
g3
Nsg4
I00
sg5
g6
sg7
S'flashlight'
p126
sg9
I01
sg10
I01
sg11
I00
sg12
(dp127
g5
(lp128
S'flashlight'
p129
asg16
(lp130
g18
assg19
I0
sg20
I00
sg21
I00
sba(iplan_action
PlanAction
p131
(dp132
g3
S'drawer'
p133
sg4
I00
sg5
S'flashlight'
p134
sg7
S'flashlight'
p135
sg9
I01
sg10
I00
sg11
I00
sg12
(dp136
g5
(lp137
g6
asg16
(lp138
g30
asS'in_drawer'
p139
(lp140
S'flashlight'
p141
assg19
I1
sg20
I00
sg21
I00
sba(iplan_action
PlanAction
p142
(dp143
g3
S'table'
p144
sg4
I00
sg5
g6
sg7
Nsg9
I01
sg10
I01
sg11
I00
sg12
(dp145
sg19
I4
sg20
I00
sg21
I00
sba(iplan_action
PlanAction
p146
(dp147
g3
Nsg4
I00
sg5
g6
sg7
Nsg9
I01
sg10
I01
sg11
I00
sg12
(dp148
sg19
I6
sg20
I00
sg21
I00
sba(iplan_action
PlanAction
p149
(dp150
g3
S'table'
p151
sg4
I00
sg5
g6
sg7
Nsg9
I01
sg10
I01
sg11
I00
sg12
(dp152
g74
(lp153
S'batteries'
p154
aS'granola'
p155
assg19
I4
sg20
I00
sg21
I00
sba(iplan_action
PlanAction
p156
(dp157
g3
Nsg4
I00
sg5
g6
sg7
S'batteries'
p158
sg9
I01
sg10
I01
sg11
I00
sg12
(dp159
g5
(lp160
S'batteries'
p161
asg16
(lp162
g18
assg19
I0
sg20
I00
sg21
I00
sba(iplan_action
PlanAction
p163
(dp164
g3
S'drawer'
p165
sg4
I00
sg5
S'batteries'
p166
sg7
S'batteries'
p167
sg9
I01
sg10
I00
sg11
I00
sg12
(dp168
sg19
I1
sg20
I00
sg21
I00
sba(iplan_action
PlanAction
p169
(dp170
g3
Nsg4
I00
sg5
S'batteries'
p171
sg7
S'batteries'
p172
sg9
I01
sg10
I00
sg11
I00
sg12
(dp173
g74
(lp174
S'batteries'
p175
assg19
I5
sg20
I00
sg21
I00
sba(iplan_action
PlanAction
p176
(dp177
g3
S'drawer'
p178
sg4
I00
sg5
S'batteries'
p179
sg7
S'batteries'
p180
sg9
I01
sg10
I00
sg11
I00
sg12
(dp181
g74
(lp182
S'batteries'
p183
assg19
I4
sg20
I00
sg21
I00
sba(iplan_action
PlanAction
p184
(dp185
g3
Nsg4
I00
sg5
S'batteries'
p186
sg7
S'batteries'
p187
sg9
I01
sg10
I00
sg11
I00
sg12
(dp188
g5
(lp189
g6
asg16
(lp190
g30
asg139
(lp191
S'batteries'
p192
assg19
I2
sg20
I00
sg21
I00
sba(iplan_action
PlanAction
p193
(dp194
g3
Nsg4
I00
sg5
g6
sg7
S'drawer'
p195
sg9
I01
sg10
I01
sg11
I00
sg12
(dp196
g5
(lp197
S'drawer'
p198
asg16
(lp199
g18
assg19
I0
sg20
I01
sg21
I00
sba(iplan_action
PlanAction
p200
(dp201
g3
S'drawer'
p202
sg4
I00
sg5
S'drawer'
p203
sg7
S'drawer'
p204
sg9
I01
sg10
I00
sg11
I00
sg12
(dp205
g74
(lp206
S'batteries'
p207
aS'flashlight'
p208
asg18
(lp209
g116
assg19
I4
sg20
I01
sg21
I00
sba(iplan_action
PlanAction
p210
(dp211
g3
Nsg4
I00
sg5
S'drawer'
p212
sg7
S'drawer'
p213
sg9
I01
sg10
I00
sg11
I00
sg12
(dp214
g5
(lp215
g6
asg16
(lp216
g30
assg19
I2
sg20
I00
sg21
I00
sba(iplan_action
PlanAction
p217
(dp218
g3
S'stack'
p219
sg4
I00
sg5
S'lid'
p220
sg7
S'lid'
p221
sg9
I01
sg10
I00
sg11
I00
sg12
(dp222
g5
(lp223
g6
asg16
(lp224
g30
asg30
(lp225
g32
assg19
I1
sg20
I00
sg21
I00
sba(iplan_action
PlanAction
p226
(dp227
g3
S'box'
p228
sg4
I00
sg5
S'apple'
p229
sg7
S'apple'
p230
sg9
I01
sg10
I00
sg11
I00
sg12
(dp231
sg19
I1
sg20
I00
sg21
I00
sba(iplan_action
PlanAction
p232
(dp233
g3
Nsg4
I00
sg5
S'apple'
p234
sg7
S'apple'
p235
sg9
I01
sg10
I00
sg11
I00
sg12
(dp236
g74
(lp237
S'apple'
p238
assg19
I7
sg20
I00
sg21
I00
sba(iplan_action
PlanAction
p239
(dp240
g3
Nsg4
I00
sg5
g6
sg7
S'batteries'
p241
sg9
I01
sg10
I01
sg11
I00
sg12
(dp242
sg19
I0
sg20
I00
sg21
I00
sba(iplan_action
PlanAction
p243
(dp244
g3
S'box'
p245
sg4
I00
sg5
S'lid'
p246
sg7
S'lid'
p247
sg9
I01
sg10
I00
sg11
I00
sg12
(dp248
g5
(lp249
g6
asg16
(lp250
g30
asg18
(lp251
g32
assg19
I1
sg20
I01
sg21
I00
sba(iplan_action
PlanAction
p252
(dp253
g3
S'drawer'
p254
sg4
I00
sg5
S'batteries'
p255
sg7
S'batteries'
p256
sg9
I01
sg10
I00
sg11
I00
sg12
(dp257
g5
(lp258
g6
asg16
(lp259
g30
asg139
(lp260
S'batteries'
p261
assg19
I1
sg20
I00
sg21
I00
sba(iplan_action
PlanAction
p262
(dp263
g3
S'stack'
p264
sg4
I00
sg5
g6
sg7
Nsg9
I01
sg10
I01
sg11
I00
sg12
(dp265
g74
(lp266
S'batteries'
p267
aS'flashlight'
p268
asg18
(lp269
g116
assg19
I4
sg20
I00
sg21
I00
sba(iplan_action
PlanAction
p270
(dp271
g3
Nsg4
I00
sg5
g6
sg7
S'batteries'
p272
sg9
I01
sg10
I01
sg11
I00
sg12
(dp273
g5
(lp274
S'batteries'
p275
asg16
(lp276
g18
assg19
I3
sg20
I00
sg21
I00
sba(iplan_action
PlanAction
p277
(dp278
g3
S'handle'
p279
sg4
I00
sg5
g6
sg7
Nsg9
I01
sg10
I01
sg11
I00
sg12
(dp280
sg19
I4
sg20
I00
sg21
I00
sba(iplan_action
PlanAction
p281
(dp282
g3
S'drawer'
p283
sg4
I00
sg5
g6
sg7
Nsg9
I01
sg10
I01
sg11
I00
sg12
(dp284
g74
(lp285
S'batteries'
p286
aS'flashlight'
p287
asg18
(lp288
g116
assg19
I4
sg20
I00
sg21
I00
sba(iplan_action
PlanAction
p289
(dp290
g3
S'table'
p291
sg4
I00
sg5
S'lid'
p292
sg7
S'lid'
p293
sg9
I01
sg10
I00
sg11
I00
sg12
(dp294
g30
(lp295
g32
assg19
I4
sg20
I00
sg21
I00
sba(iplan_action
PlanAction
p296
(dp297
g3
Nsg4
I00
sg5
S'lid'
p298
sg7
S'lid'
p299
sg9
I01
sg10
I00
sg11
I00
sg12
(dp300
g5
(lp301
g6
asg16
(lp302
g30
asg74
(lp303
g76
assg19
I2
sg20
I01
sg21
I00
sba(iplan_action
PlanAction
p304
(dp305
g3
Nsg4
I00
sg5
S'apple'
p306
sg7
S'apple'
p307
sg9
I01
sg10
I00
sg11
I00
sg12
(dp308
g74
(lp309
S'apple'
p310
assg19
I5
sg20
I00
sg21
I00
sba(iplan_action
PlanAction
p311
(dp312
g3
S'box'
p313
sg4
I00
sg5
S'apple'
p314
sg7
S'apple'
p315
sg9
I01
sg10
I00
sg11
I00
sg12
(dp316
g74
(lp317
S'apple'
p318
assg19
I4
sg20
I00
sg21
I00
sba(iplan_action
PlanAction
p319
(dp320
g3
Nsg4
I00
sg5
S'apple'
p321
sg7
S'apple'
p322
sg9
I01
sg10
I00
sg11
I00
sg12
(dp323
g5
(lp324
g6
asg16
(lp325
g30
asg55
(lp326
S'apple'
p327
assg19
I2
sg20
I00
sg21
I00
sba(iplan_action
PlanAction
p328
(dp329
g3
S'stack'
p330
sg4
I00
sg5
S'flashlight'
p331
sg7
S'flashlight'
p332
sg9
I01
sg10
I00
sg11
I00
sg12
(dp333
sg19
I1
sg20
I00
sg21
I00
sba(iplan_action
PlanAction
p334
(dp335
g3
Nsg4
I00
sg5
S'flashlight'
p336
sg7
S'flashlight'
p337
sg9
I01
sg10
I00
sg11
I00
sg12
(dp338
g74
(lp339
S'flashlight'
p340
assg19
I5
sg20
I00
sg21
I00
sba(iplan_action
PlanAction
p341
(dp342
g3
S'stack'
p343
sg4
I00
sg5
S'flashlight'
p344
sg7
S'flashlight'
p345
sg9
I01
sg10
I00
sg11
I00
sg12
(dp346
g5
(lp347
g6
asg16
(lp348
g30
asg74
(lp349
S'flashlight'
p350
assg19
I1
sg20
I00
sg21
I00
sba(iplan_action
PlanAction
p351
(dp352
g3
S'stack'
p353
sg4
I00
sg5
S'batteries'
p354
sg7
S'batteries'
p355
sg9
I01
sg10
I00
sg11
I00
sg12
(dp356
sg19
I1
sg20
I00
sg21
I00
sba(iplan_action
PlanAction
p357
(dp358
g3
S'drawer'
p359
sg4
I00
sg5
S'batteries'
p360
sg7
S'batteries'
p361
sg9
I01
sg10
I00
sg11
I00
sg12
(dp362
g74
(lp363
S'batteries'
p364
asg139
(lp365
S'flashlight'
p366
assg19
I4
sg20
I00
sg21
I00
sba(iplan_action
PlanAction
p367
(dp368
g3
S'box'
p369
sg4
I00
sg5
S'lid'
p370
sg7
S'lid'
p371
sg9
I01
sg10
I00
sg11
I00
sg12
(dp372
sg19
I1
sg20
I01
sg21
I00
sba(iplan_action
PlanAction
p373
(dp374
g3
S'table'
p375
sg4
I00
sg5
S'apple'
p376
sg7
S'apple'
p377
sg9
I01
sg10
I00
sg11
I00
sg12
(dp378
g5
(lp379
g6
asg16
(lp380
g30
asg74
(lp381
S'apple'
p382
assg19
I1
sg20
I00
sg21
I00
sba(iplan_action
PlanAction
p383
(dp384
g3
Nsg4
I00
sg5
g6
sg7
S'flashlight'
p385
sg9
I01
sg10
I01
sg11
I00
sg12
(dp386
sg19
I0
sg20
I00
sg21
I00
sba(iplan_action
PlanAction
p387
(dp388
g3
S'stack'
p389
sg4
I00
sg5
g6
sg7
Nsg9
I01
sg10
I01
sg11
I00
sg12
(dp390
g74
(lp391
S'flashlight'
p392
asg18
(lp393
g116
assg19
I4
sg20
I00
sg21
I00
sba(iplan_action
PlanAction
p394
(dp395
g3
S'table'
p396
sg4
I00
sg5
S'batteries'
p397
sg7
S'batteries'
p398
sg9
I01
sg10
I00
sg11
I00
sg12
(dp399
g74
(lp400
S'batteries'
p401
assg19
I4
sg20
I00
sg21
I00
sba(iplan_action
PlanAction
p402
(dp403
g3
Nsg4
I00
sg5
S'batteries'
p404
sg7
S'batteries'
p405
sg9
I01
sg10
I00
sg11
I00
sg12
(dp406
g5
(lp407
g6
asg16
(lp408
g30
assg19
I2
sg20
I00
sg21
I00
sba(iplan_action
PlanAction
p409
(dp410
g3
S'table'
p411
sg4
I00
sg5
S'drawer'
p412
sg7
S'drawer'
p413
sg9
I01
sg10
I00
sg11
I00
sg12
(dp414
g30
(lp415
g116
asg74
(lp416
S'flashlight'
p417
assg19
I4
sg20
I00
sg21
I00
sba(iplan_action
PlanAction
p418
(dp419
g3
Nsg4
I00
sg5
g6
sg7
S'drawer'
p420
sg9
I01
sg10
I01
sg11
I00
sg12
(dp421
sg19
I0
sg20
I01
sg21
I00
sba(iplan_action
PlanAction
p422
(dp423
g3
Nsg4
I00
sg5
g6
sg7
S'li'
p424
sg9
I01
sg10
I01
sg11
I00
sg12
(dp425
sg19
I0
sg20
I00
sg21
I00
sba(iplan_action
PlanAction
p426
(dp427
g3
Nsg4
I00
sg5
g6
sg7
Nsg9
I01
sg10
I01
sg11
I00
sg12
(dp428
sg19
I2
sg20
I00
sg21
I00
sba(iplan_action
PlanAction
p429
(dp430
g3
S'table'
p431
sg4
I00
sg5
g6
sg7
Nsg9
I01
sg10
I01
sg11
I00
sg12
(dp432
g74
(lp433
S'apple'
p434
aS'flashlight'
p435
assg19
I4
sg20
I00
sg21
I00
sba(iplan_action
PlanAction
p436
(dp437
g3
S'lid'
p438
sg4
I00
sg5
S'lid'
p439
sg7
S'lid'
p440
sg9
I01
sg10
I00
sg11
I00
sg12
(dp441
sg19
I4
sg20
I01
sg21
I00
sba(iplan_action
PlanAction
p442
(dp443
g3
S'table'
p444
sg4
I00
sg5
S'lid'
p445
sg7
S'lid'
p446
sg9
I01
sg10
I00
sg11
I00
sg12
(dp447
g74
(lp448
g76
assg19
I4
sg20
I01
sg21
I00
sba(iplan_action
PlanAction
p449
(dp450
g3
Nsg4
I00
sg5
S'lid'
p451
sg7
S'lid'
p452
sg9
I01
sg10
I00
sg11
I00
sg12
(dp453
g5
(lp454
g6
asg16
(lp455
g30
assg19
I2
sg20
I01
sg21
I00
sba(iplan_action
PlanAction
p456
(dp457
g3
Nsg4
I00
sg5
S'batteries'
p458
sg7
S'batteries'
p459
sg9
I01
sg10
I00
sg11
I00
sg12
(dp460
g74
(lp461
S'batteries'
p462
assg19
I7
sg20
I00
sg21
I00
sba(iplan_action
PlanAction
p463
(dp464
g3
S'stack'
p465
sg4
I00
sg5
S'drawer'
p466
sg7
S'drawer'
p467
sg9
I01
sg10
I00
sg11
I00
sg12
(dp468
g74
(lp469
S'batteries'
p470
aS'flashlight'
p471
asg18
(lp472
g116
assg19
I4
sg20
I01
sg21
I00
sba(iplan_action
PlanAction
p473
(dp474
g3
S'table'
p475
sg4
I00
sg5
S'drawer'
p476
sg7
S'drawer'
p477
sg9
I01
sg10
I00
sg11
I00
sg12
(dp478
g74
(lp479
g116
ag279
assg19
I4
sg20
I01
sg21
I00
sba(iplan_action
PlanAction
p480
(dp481
g3
S'stack'
p482
sg4
I00
sg5
S'flashlight'
p483
sg7
S'flashlight'
p484
sg9
I01
sg10
I00
sg11
I00
sg12
(dp485
g5
(lp486
g6
asg16
(lp487
g30
asg139
(lp488
S'flashlight'
p489
assg19
I1
sg20
I00
sg21
I00
sba(iplan_action
PlanAction
p490
(dp491
g3
S'stack'
p492
sg4
I00
sg5
S'batteries'
p493
sg7
S'batteries'
p494
sg9
I01
sg10
I00
sg11
I00
sg12
(dp495
g5
(lp496
g6
asg16
(lp497
g30
asg74
(lp498
S'batteries'
p499
assg19
I1
sg20
I00
sg21
I00
sba(iplan_action
PlanAction
p500
(dp501
g3
S'stack'
p502
sg4
I00
sg5
S'drawer'
p503
sg7
S'drawer'
p504
sg9
I01
sg10
I00
sg11
I00
sg12
(dp505
g74
(lp506
S'batteries'
p507
aS'flashlight'
p508
ag116
ag279
assg19
I4
sg20
I01
sg21
I00
sba(iplan_action
PlanAction
p509
(dp510
g3
Nsg4
I00
sg5
S'flashlight'
p511
sg7
S'flashlight'
p512
sg9
I01
sg10
I00
sg11
I00
sg12
(dp513
g74
(lp514
S'flashlight'
p515
assg19
I7
sg20
I00
sg21
I00
sba(iplan_action
PlanAction
p516
(dp517
g3
S'stack'
p518
sg4
I00
sg5
g6
sg7
Nsg9
I01
sg10
I01
sg11
I00
sg12
(dp519
sg19
I4
sg20
I00
sg21
I00
sba(iplan_action
PlanAction
p520
(dp521
g3
S'drawer'
p522
sg4
I00
sg5
g6
sg7
Nsg9
I01
sg10
I01
sg11
I00
sg12
(dp523
g139
(lp524
S'batteries'
p525
aS'flashlight'
p526
assg19
I4
sg20
I00
sg21
I00
sba(iplan_action
PlanAction
p527
(dp528
g3
Nsg4
I00
sg5
g6
sg7
S'lid'
p529
sg9
I01
sg10
I01
sg11
I00
sg12
(dp530
sg19
I0
sg20
I00
sg21
I00
sba(iplan_action
PlanAction
p531
(dp532
g3
S'lid'
p533
sg4
I00
sg5
g6
sg7
Nsg9
I00
sg10
I01
sg11
I00
sg12
(dp534
sg19
I4
sg20
I00
sg21
I00
sba(iplan_action
PlanAction
p535
(dp536
g3
Nsg4
I00
sg5
g6
sg7
S'lid'
p537
sg9
I01
sg10
I01
sg11
I00
sg12
(dp538
g5
(lp539
S'lid'
p540
asg16
(lp541
g18
assg19
I3
sg20
I00
sg21
I00
sba(iplan_action
PlanAction
p542
(dp543
g3
S'lid'
p544
sg4
I00
sg5
S'lid'
p545
sg7
S'lid'
p546
sg9
I00
sg10
I00
sg11
I00
sg12
(dp547
g30
(lp548
g32
assg19
I4
sg20
I00
sg21
I00
sba(iplan_action
PlanAction
p549
(dp550
g3
S'lid'
p551
sg4
I00
sg5
S'lid'
p552
sg7
S'lid'
p553
sg9
I01
sg10
I00
sg11
I00
sg12
(dp554
g74
(lp555
g76
assg19
I4
sg20
I01
sg21
I00
sba(iplan_action
PlanAction
p556
(dp557
g3
S'drawer'
p558
sg4
I00
sg5
S'flashlight'
p559
sg7
S'flashlight'
p560
sg9
I01
sg10
I00
sg11
I00
sg12
(dp561
sg19
I1
sg20
I00
sg21
I00
sba(iplan_action
PlanAction
p562
(dp563
g3
S'batteries'
p564
sg4
I00
sg5
g6
sg7
Nsg9
I01
sg10
I01
sg11
I00
sg12
(dp565
sg19
I4
sg20
I00
sg21
I00
sba(iplan_action
PlanAction
p566
(dp567
g3
Nsg4
I00
sg5
S'batteries'
p568
sg7
S'batteries'
p569
sg9
I01
sg10
I00
sg11
I00
sg12
(dp570
sg19
I7
sg20
I00
sg21
I00
sba(iplan_action
PlanAction
p571
(dp572
g3
S'flashlight'
p573
sg4
I00
sg5
g6
sg7
Nsg9
I01
sg10
I01
sg11
I00
sg12
(dp574
sg19
I4
sg20
I00
sg21
I00
sba(iplan_action
PlanAction
p575
(dp576
g3
Nsg4
I00
sg5
g6
sg7
S'flashlight'
p577
sg9
I01
sg10
I01
sg11
I00
sg12
(dp578
g5
(lp579
S'flashlight'
p580
asg16
(lp581
g18
assg19
I3
sg20
I00
sg21
I00
sba(iplan_action
PlanAction
p582
(dp583
g3
S'drawer'
p584
sg4
I00
sg5
S'flashlight'
p585
sg7
S'flashlight'
p586
sg9
I01
sg10
I00
sg11
I00
sg12
(dp587
g74
(lp588
S'flashlight'
p589
assg19
I4
sg20
I00
sg21
I00
sba(iplan_action
PlanAction
p590
(dp591
g3
Nsg4
I00
sg5
S'flashlight'
p592
sg7
S'flashlight'
p593
sg9
I01
sg10
I00
sg11
I00
sg12
(dp594
g5
(lp595
g6
asg16
(lp596
g30
asg139
(lp597
S'flashlight'
p598
assg19
I2
sg20
I00
sg21
I00
sba(iplan_action
PlanAction
p599
(dp600
g3
S'apple'
p601
sg4
I00
sg5
g6
sg7
Nsg9
I01
sg10
I01
sg11
I00
sg12
(dp602
sg19
I4
sg20
I00
sg21
I00
sba(iplan_action
PlanAction
p603
(dp604
g3
Nsg4
I00
sg5
g6
sg7
S'apple'
p605
sg9
I01
sg10
I01
sg11
I00
sg12
(dp606
g5
(lp607
S'apple'
p608
asg16
(lp609
g18
assg19
I3
sg20
I00
sg21
I00
sba(iplan_action
PlanAction
p610
(dp611
g3
S'table'
p612
sg4
I00
sg5
S'drawer'
p613
sg7
S'drawer'
p614
sg9
I01
sg10
I00
sg11
I00
sg12
(dp615
g74
(lp616
S'batteries'
p617
ag116
ag279
assg19
I4
sg20
I01
sg21
I00
sba(iplan_action
PlanAction
p618
(dp619
g3
S'box'
p620
sg4
I00
sg5
g6
sg7
Nsg9
I01
sg10
I01
sg11
I00
sg12
(dp621
sg19
I4
sg20
I00
sg21
I00
sba(iplan_action
PlanAction
p622
(dp623
g3
Nsg4
I01
sg5
g6
sg7
S'batteries'
p624
sg9
I01
sg10
I01
sg11
I00
sg12
(dp625
g5
(lp626
S'batteries'
p627
asg16
(lp628
g18
assg19
I3
sg20
I00
sg21
I00
sba(iplan_action
PlanAction
p629
(dp630
g3
S'drawer'
p631
sg4
I01
sg5
S'batteries'
p632
sg7
S'batteries'
p633
sg9
I01
sg10
I00
sg11
I00
sg12
(dp634
g5
(lp635
g6
asg16
(lp636
g30
asS'not_in_box'
p637
(lp638
S'batteries'
p639
asg139
(lp640
S'batteries'
p641
assg19
I1
sg20
I00
sg21
I00
sba(iplan_action
PlanAction
p642
(dp643
g3
Nsg4
I00
sg5
S'lid'
p644
sg7
S'lid'
p645
sg9
I01
sg10
I00
sg11
I00
sg12
(dp646
g5
(lp647
g6
asg16
(lp648
g30
asg74
(lp649
g76
assg19
I2
sg20
I00
sg21
I00
sba(iplan_action
PlanAction
p650
(dp651
g3
Nsg4
I01
sg5
g6
sg7
S'batteries'
p652
sg9
I01
sg10
I01
sg11
I00
sg12
(dp653
g5
(lp654
S'batteries'
p655
asg16
(lp656
g18
assg19
I0
sg20
I00
sg21
I00
sba(iplan_action
PlanAction
p657
(dp658
g3
Nsg4
I01
sg5
S'batteries'
p659
sg7
S'batteries'
p660
sg9
I01
sg10
I00
sg11
I00
sg12
(dp661
g74
(lp662
S'batteries'
p663
assg19
I5
sg20
I00
sg21
I00
sba(iplan_action
PlanAction
p664
(dp665
g3
Nsg4
I01
sg5
S'batteries'
p666
sg7
S'batteries'
p667
sg9
I01
sg10
I00
sg11
I00
sg12
(dp668
g637
(lp669
S'batteries'
p670
assg19
I5
sg20
I00
sg21
I00
sba(iplan_action
PlanAction
p671
(dp672
g3
S'drawer'
p673
sg4
I00
sg5
S'drawer'
p674
sg7
S'drawer'
p675
sg9
I01
sg10
I00
sg11
I00
sg12
(dp676
g18
(lp677
g116
assg19
I4
sg20
I01
sg21
I00
sba(iplan_action
PlanAction
p678
(dp679
g3
S'drawer'
p680
sg4
I00
sg5
g6
sg7
Nsg9
I01
sg10
I01
sg11
I00
sg12
(dp681
sg19
I4
sg20
I00
sg21
I00
sba(iplan_action
PlanAction
p682
(dp683
g3
S'table'
p684
sg4
I00
sg5
g6
sg7
Nsg9
I01
sg10
I01
sg11
I00
sg12
(dp685
g74
(lp686
S'batteries'
p687
assg19
I4
sg20
I00
sg21
I00
sba.